c__builtin__
set
p1
((lp2
Valmost perfect
p3
aVhappily ever after
p4
aVzach braff
p5
aVoliver kalkofe
p6
aVfrances fisher
p7
aVvikrant massey
p8
aVgrudge match
p9
aV2011 in film
p10
aValmost human
p11
aVadventures of captain marvel
p12
aVjudge joe brown
p13
aVbig sean
p14
aVwhere it all began
p15
aVjimmy tamborello
p16
aVblue is the warmest colour
p17
aVgary oldman
p18
aVnat geo wild
p19
aVjeepers creepers
p20
aVa kiss before dying
p21
aVrob reiner
p22
aVdean o'gorman
p23
aVmrs. gibbons' boys
p24
aVletter to loretta
p25
aVmary tyler moore
p26
aVi hate myself for loving you
p27
aVto the wonder
p28
aVincredible crew
p29
aVgravitas ventures
p30
aVlove at stake
p31
aVdancing fools
p32
aVpaul mccartney
p33
aVbill hader
p34
aVnbc news
p35
aVpush the sky away
p36
aVdevon bostick
p37
aVrob corddry
p38
aVchris williams
p39
aV222 records
p40
aVt-minus
p41
aVnorman palmer
p42
aVtinie tempah
p43
aVonly god forgives
p44
aVandre royo
p45
aVadam brody
p46
aVbrides of blood
p47
aVidina menzel
p48
aVpaternity court
p49
aVcomedown machine
p50
aVharmony korine
p51
aVvalgeir sigur\u005cu00f0sson
p52
aVdavid lindsay-abaire
p53
aVbrodus clay
p54
aVmark strong
p55
aVmatthew goode
p56
aVsuppose they gave a war and nobody came
p57
aVolga lowe
p58
aVstar trek v: the final frontier
p59
aVteddy riley
p60
aVjude law
p61
aVtallahassee, florida
p62
aVteri hatcher
p63
aVrohit shetty
p64
aVlook back in anger
p65
aVdiane lane
p66
aVsumerian records
p67
aVjohn malone
p68
aVblack belt jones
p69
aVroberto aguirre-sacasa
p70
aVbattle maximus
p71
aVpaz vega
p72
aVtesla boy
p73
aVwalt disney company
p74
aVrichard j. collins
p75
aVbon jovi
p76
aVashley bell
p77
aVafrojack
p78
aVverizon fios
p79
aVnightline
p80
aVmommie dearest
p81
aVfantastic four
p82
aVsurviving picasso
p83
aVhow to destroy angels
p84
aVrise records
p85
aVkame-tv
p86
aVaugustus prew
p87
aVpanama city, florida
p88
aVsomeone still loves you boris yeltsin
p89
aVblind fury
p90
aVedward bland
p91
aVbenny blanco
p92
aVkumar pallana
p93
aVdude cowboy
p94
aVchris thomas
p95
aVcry for me, billy
p96
aVshigeru chiba
p97
aVparlophone
p98
aVanthony mackie
p99
aVwe think the world of you
p100
aVnewhart
p101
aVentertainment weekly
p102
aVfox sports 1
p103
aVfox sports 2
p104
aV2017 in film
p105
aVsarah shahi
p106
aVchange of habit
p107
aVarefin shuvo
p108
aVblack panties
p109
aVwcau
p110
aVjulianne moore
p111
aVkharaj mukherjee
p112
aVdirty hit
p113
aVteresa palmer
p114
aVjames bond in film
p115
aVtoo weird to live, too rare to die!
p116
aVbye bye love
p117
aVwlmt
p118
aVbrandy norwood
p119
aVrulers of the sea
p120
aVwebisode
p121
aVgrandview, u.s.a.
p122
aVhollywood squares
p123
aVsaif ali khan
p124
aVscoop deville
p125
aVksnv-dt
p126
aVstoner rock
p127
aVsadomania
p128
aVfree birds
p129
aVanna friel
p130
aVaubrey plaza
p131
aVamy madigan
p132
aVindian summer
p133
aVspace rock
p134
aVlive well network
p135
aVjohnny knoxville
p136
aVkelly marcel
p137
aVfrances o'connor
p138
aVraising whitley
p139
aVclubland
p140
aVjulie delpy
p141
aVjames badge dale
p142
aVdomino recording company
p143
aVrace to witch mountain
p144
aVbankrupt!
p145
aVsigur r\u005cu00f3s
p146
aVwoman's world
p147
aVbarry levy
p148
aVjay-z
p149
aVjust blaze
p150
aVdamon intrabartolo
p151
aVmission broadcasting
p152
aVsarah brightman
p153
aVdubstep
p154
aVjonna lee
p155
aVgreased lightning
p156
aVmaybach music group
p157
aVshruti haasan
p158
aVamit sadh
p159
aVknife fight
p160
aVt. r. knight
p161
aVangela's ashes
p162
aVmorgan freeman
p163
aVliverpool fc
p164
aVjeff stevens
p165
aVprince michael jackson i
p166
aVtin cup
p167
aVdallas, texas
p168
aVwpwr-tv
p169
aV5 steps to danger
p170
aVgainesville, florida
p171
aVchesty anderson, usn
p172
aVbig d and the kids table
p173
aV2013 atlantic hurricane season
p174
aVlos momentos
p175
aValex russell
p176
aVverve records
p177
aVgareth evans
p178
aVcin\u005cu00e9moi
p179
aVsendhil ramamurthy
p180
aVrocks and honey
p181
aVstruck by lightning
p182
aVajay jadeja
p183
aVfriday night lights
p184
aVelectra avellan
p185
aVroseland
p186
aVsanta claus: the movie
p187
aVgary valentine
p188
aVsinclair broadcast group
p189
aVja'mie: private school girl
p190
aVluciano martino
p191
aV2010 in american television
p192
aVburger land
p193
aVjo jo dancer, your life is calling
p194
aVocean's eleven
p195
aVone direction
p196
aVtonight alive
p197
aVshort circuit
p198
aVmichael urie
p199
aVc.h.u.d.
p200
aVextremespeed genesect: mewtwo awakens
p201
aVlee pace
p202
aVian mckellen
p203
aV2013 in scottish television
p204
aVpost-punk
p205
aVjudy blume
p206
aVrob caggiano
p207
aVtabitha st. germain
p208
aVthat lucky touch
p209
aVappointment with death
p210
aVtotally t-boz
p211
aVit's trad, dad!
p212
aVvocal jazz
p213
aVgreg kinnear
p214
aVbloomington, illinois
p215
aVzero hour
p216
aValan tudyk
p217
aVabigail breslin
p218
aVjane connell
p219
aVpretty lights music
p220
aVprivate potter
p221
aVmargo martindale
p222
aV\u005cu00a1despierta am\u005cu00e9rica!
p223
aValex neuberger
p224
aVblack zoo
p225
aVpower rangers megaforce
p226
aVwoody harrelson
p227
aVdimensionaut
p228
aVface the nation
p229
aVhour of power
p230
aVx-play
p231
aVmodesty blaise
p232
aVblack metal
p233
aVsarah steele
p234
aVtamannaah
p235
aVword records
p236
aVingrid bolso berdal
p237
aV2005 in film
p238
aVrihanna
p239
aVhome run
p240
aVdavid andrew sitek
p241
aVjonah hill
p242
aVit's always sunny in philadelphia
p243
aVmulan
p244
aV21 & over
p245
aVwonderful world
p246
aVtom epperson
p247
aVjohnny flynn
p248
aVkang woo-suk
p249
aVestrella tv
p250
aVgod told me to
p251
aVshuddh desi romance
p252
aVpacific time zone
p253
aVmostofa sarwar farooki
p254
aVthirtysomething
p255
aVron eldard
p256
aVanton yelchin
p257
aVjohnny harris
p258
aVcee lo green
p259
aVbutte, montana
p260
aVjoaquin phoenix
p261
aVunsh\u005cu014d ishizuka
p262
aVanna wing
p263
aVred white & new
p264
aVpsychedelic folk
p265
aValfonso cuaron
p266
aVjudy garland
p267
aVjohn travolta
p268
aVjennifer hudson
p269
aVlife with la toya
p270
aVjustin chambers
p271
aVwjzy
p272
aVhope sandoval
p273
aVromantic drama
p274
aVsean garrett
p275
aVclaes bj\u005cu00f6rklund
p276
aVcharlotte, north carolina
p277
aVkemosabe records
p278
aVrica matsumoto
p279
aVtom holland
p280
aVsanjay gupta
p281
aVmoore, oklahoma
p282
aVhenry bromell
p283
aVwhere the wild things are
p284
aVcharlie peacock
p285
aVthagubothu ramesh
p286
aVroxane mesquida
p287
aVasylum records
p288
aVdominic purcell
p289
aVrick nowels
p290
aVa color map of the sun
p291
aVspin city
p292
aVfuture garage
p293
aVkojak
p294
aVcharleston, south carolina
p295
aVperrette pradier
p296
aVsevendust
p297
aVwolf's law
p298
aVsamantha ruth prabhu
p299
aVtony oller
p300
aVlive it up!
p301
aVgerard murphy
p302
aVmichael goldie
p303
aVrollo armstrong
p304
aVfox & friends
p305
aVdaniel boone
p306
aVoka antara
p307
aVdes moines
p308
aVprnewswire
p309
aVdirty work
p310
aVguys with kids
p311
aVhouston rockets
p312
aVjames denton
p313
aVjonny lee miller
p314
aVharald siepermann
p315
aVhailee steinfeld
p316
aVjason flemyng
p317
aVdef jam
p318
aVcreature from the haunted sea
p319
aVmadison, wisconsin
p320
aVjessica alba
p321
aVnick at nite
p322
aVbob peck
p323
aVit came from beneath the sea
p324
aV2013 in canadian music
p325
aVlas vegas review-journal
p326
aVmacon, georgia
p327
aVlou taylor pucci
p328
aVbalearic beat
p329
aVjohn magaro
p330
aVjimmy bennett
p331
aVpeeping tom
p332
aVc\u005cu00e1stulo guerra
p333
aVadrian younge
p334
aVjohn ridley
p335
aVnatalie portman
p336
aVwanted: dead or alive
p337
aVpitchfork media
p338
aVwoodstock
p339
aVintronaut
p340
aVbonneville international
p341
aVsenses fail
p342
aVfates warning
p343
aVvideo on demand
p344
aVkill them with kindness
p345
aVfran healy
p346
aVrelativity media
p347
aVshinichir\u005cu014d miki
p348
aVdon't just lie there, say something!
p349
aVvoivod
p350
aVmark wright
p351
aVbig tv
p352
aVgiuliano gemma
p353
aVrobert d. siegel
p354
aVbates motel
p355
aV2013 mtv video music awards
p356
aVwagons east!
p357
aVbikini beach
p358
aV77 sunset strip
p359
aVnadia sirota
p360
aVno way out
p361
aVhousesitter
p362
aVterminal velocity
p363
aVallbritton communications company
p364
aVwretched and divine: the story of the wild ones
p365
aVdestiny's child
p366
aVumg
p367
aVdelivery man
p368
aVdeathwish inc
p369
aVoscar castro-neves
p370
aVvision communications
p371
aVoh... rosalinda!!
p372
aVtwin falls, idaho
p373
aVlara fabian
p374
aVangelo petraglia
p375
aVpolo grounds music
p376
aVsunday night
p377
aVlos angeles dodgers
p378
aVr.i.p.d.
p379
aVyoung ideas
p380
aVstana katic
p381
aVeg white
p382
aVbarclay records
p383
aVdavid frost
p384
aVfighting mad
p385
aVamanda plummer
p386
aVmaya rudolph
p387
aVshane alexander
p388
aVviolet & daisy
p389
aVlaurence fishburne
p390
aVbd wong
p391
aVed lauter
p392
aVsubas herrero
p393
aVvin diesel
p394
aVpercy jackson: sea of monsters
p395
aVprogressive house
p396
aVmbv
p397
aVsony masterworks
p398
aVwhere the spies are
p399
aVyg entertainment
p400
aVlambada
p401
aVvinnie jones
p402
aVharald zwart
p403
aVmatt goldman
p404
aVdaniel gerson
p405
aVtony lip
p406
aVsave rock and roll
p407
aVyoung and willing
p408
aVchristina hendricks
p409
aVoscar wilde
p410
aV66th british academy film awards
p411
aVsleaze rock
p412
aVderay davis
p413
aVaccess all arenas
p414
aVwelcome to the rileys
p415
aVvoyage to the bottom of the sea
p416
aVlady gaga
p417
aVrichard dreyfuss
p418
aV2013 in television
p419
aVhuang bo
p420
aVsuch hot blood
p421
aVlittle rock, arkansas
p422
aVvice squad
p423
aVplease like me
p424
aVrittz
p425
aVinvestment company
p426
aVwestinghouse studio one
p427
aVpeyton place
p428
aVbilly campbell
p429
aVtaxi driver
p430
aVindie hip hop
p431
aVmiki it\u005cu014d
p432
aVbill price
p433
aVain't nobody got time for that
p434
aVcrimewave
p435
aVtales of a grasswidow
p436
aVevergreen terrace
p437
aVpremier league
p438
aVdon letts
p439
aVwe are men
p440
aVa messenger
p441
aVantonia bird
p442
aVjane mcneill
p443
aVrebel in paradise
p444
aVpura vida conspiracy
p445
aVproof of life
p446
aVcarriage dispute
p447
aVma barker's killer brood
p448
aVrobert rodriguez
p449
aVbrad pitt
p450
aVfair trade services
p451
aVshared services agreement
p452
aVfrancis lawrence
p453
aVperfect score
p454
aVspeaker of the united states house of representatives
p455
aVkilling them softly
p456
aVa loss for words
p457
aV\u005cu00d3lafur arnalds
p458
aVmom + pop music
p459
aVtea for two
p460
aVknock madness
p461
aVwitches of east end
p462
aVkfbb-tv
p463
aVfrank morgan
p464
aVlt. robin crusoe, u.s.n.
p465
aVgiuliana & bill
p466
aVkarolina wydra
p467
aVkerli
p468
aVkrull
p469
aVneo-classical metal
p470
aVone for the money
p471
aVstephen greenhorn
p472
aVlesley manville
p473
aVemily alyn lind
p474
aVroadside attractions
p475
aVlong way down
p476
aVcountry pop
p477
aVhalogen tv
p478
aVkajal aggarwal
p479
aVjill barber
p480
aVhot potato
p481
aVyou're a big boy now
p482
aVmissi pyle
p483
aVmatt walsh
p484
aVstarship troopers 2: hero of the federation
p485
aVlee daniels
p486
aVtony rome
p487
aVtape deck heart
p488
aVdavid e. talbert
p489
aVsteve little
p490
aVkota-tv
p491
aVnational geographic channel
p492
aVdouble divas
p493
aVjohn kerr
p494
aVjustin long
p495
aVsheridan, wyoming
p496
aVeagle rock entertainment
p497
aVjohn luessenhop
p498
aVgoth kids 3: dawn of the posers
p499
aVwheel of fortune
p500
aVbrmc
p501
aVdecline and fall... of a birdwatcher
p502
aViron maiden
p503
aVvice records
p504
aVbeau brummell
p505
aVskylar astin
p506
aV2014 major league baseball season
p507
aVa wedding
p508
aVroxanne
p509
aVkonvict muzik
p510
aVkfre-tv
p511
aVwjtv
p512
aVrobin thicke
p513
aVhope davis
p514
aVspace cowboy
p515
aVman in the wilderness
p516
aVbrad rutter
p517
aVnews corp
p518
aVseven brides for seven brothers
p519
aVkeri russell
p520
aVmartin starr
p521
aVjimmy herman
p522
aVjared leto
p523
aVcecily strong
p524
aVrock & rule
p525
aVmartin freeman
p526
aVreflektor
p527
aVprisoner of conscious
p528
aVmetalcore
p529
aVfilm4
p530
aVveronica's closet
p531
aVpeter katis
p532
aVsoul temple records
p533
aVeverything everything
p534
aVsan francisco, california
p535
aVal sapienza
p536
aVnascar
p537
aVtv line
p538
aVevita
p539
aVdeborah turness
p540
aVpaul moak
p541
aVnorton, virginia
p542
aVtake the money and run
p543
aVhot in cleveland
p544
aVwind-up records
p545
aVtim robbins
p546
aVheaven can wait
p547
aVequity media holdings
p548
aVpretty woman
p549
aVwmaz-tv
p550
aVten cents a dance
p551
aVsteve forrest
p552
aVdaniel bruhl
p553
aVjoanna vanderham
p554
aVhotel california
p555
aVfred katz
p556
aVavengers assemble
p557
aVvanderpump rules
p558
aVkiller contact
p559
aVcomedy rock
p560
aVpinocchio and the emperor of the night
p561
aVemily owens, m.d.
p562
aVjohnny nobody
p563
aVwtvj
p564
aVborn to win
p565
aVtickle me
p566
aVwtvw
p567
aVhawaii five-0
p568
aVi'll fly away
p569
aVprasoon joshi
p570
aVsophie n\u005cu00e9lisse
p571
aVempty nest
p572
aVjoseph gordon-levitt
p573
aVned wertimer
p574
aVfamily s.o.s. with jo frost
p575
aVamy seimetz
p576
aVcrossing jordan
p577
aV!k7 records
p578
aVfirst men in the moon
p579
aVvictim of love
p580
aVbuckcherry
p581
aVwho framed roger rabbit
p582
aVtv land
p583
aVhaley ramm
p584
aVoprah winfrey network
p585
aVron white
p586
aVavantasia
p587
aVmalibu country
p588
aVhelena, montana
p589
aVnavdeep
p590
aVgangsta rap
p591
aVg.i. joe: retaliation
p592
aVain't them bodies saints
p593
aVonly teardrops
p594
aVson of flubber
p595
aVdiosa costello
p596
aVthor freudenthal
p597
aVairport 1975
p598
aVlast action hero
p599
aVcarolina liar
p600
aVfascination records
p601
aVjim sheridan
p602
aVal michaels
p603
aVhugo silva
p604
aVair force
p605
aVcobb
p606
aVleena jumani
p607
aVgo goa gone
p608
aVeric bana
p609
aVsimon cowell
p610
aVsagamorehill broadcasting
p611
aVwu-tang clan
p612
aVimage entertainment
p613
aVrakeysh omprakash mehra
p614
aVcharro!
p615
aVdavid n. weiss
p616
aVangus macfadyen
p617
aValan sharp
p618
aVinternational squadron
p619
aVmarisa miller
p620
aVmad about music
p621
aVronan keating
p622
aVwlaj
p623
aVjeremy irons
p624
aVnbc sports
p625
aVlinda park
p626
aVdj yella
p627
aVhard rock
p628
aVnaughty boy
p629
aVchris pontius
p630
aVhip hop music
p631
aVforgotten library
p632
aVaction in arabia
p633
aVcaptain clegg
p634
aVraise the curtain
p635
aVshaking the habitual
p636
aVarlington, virginia
p637
aVpaul wernick
p638
aVking of the hill
p639
aVa. j. mccarron
p640
aVcher lloyd
p641
aVchristian rock
p642
aVmatthew vaughn
p643
aVrza
p644
aVpeter segal
p645
aVdecca records
p646
aVg. dhananjayan
p647
aVgoodbye, mr. chips
p648
aVdrt entertainment
p649
aVmurder, she said
p650
aVcloudy with a chance of meatballs 2
p651
aVzyx music
p652
aVkenneth parcell
p653
aVnat faxon
p654
aVonly two can play
p655
aVvirgin emi records
p656
aVdays are gone
p657
aVcloak & dagger
p658
aVhalle berry
p659
aVjive records
p660
aVstatik selektah
p661
aVryan gosling
p662
aVymcmb
p663
aVzone 4
p664
aVpatrick schwarzenegger
p665
aVsteve evetts
p666
aVmetal blade records
p667
aVoutlaw gentlemen & shady ladies
p668
aVbedtime story
p669
aVa kind of loving
p670
aVksl-tv
p671
aVblack mama white mama
p672
aVwhite wilderness
p673
aVmarc forster
p674
aVallie grant
p675
aVjeff cahill
p676
aVwhite witch doctor
p677
aVmasked and anonymous
p678
aVjeff bezos
p679
aVsally starr
p680
aVour man in havana
p681
aVtoho
p682
aVsinger-songwriter
p683
aVconrad bain
p684
aVmartin scorsese
p685
aVnow you see me
p686
aV2013 in irish music
p687
aVnational association of broadcasters
p688
aVextreme ops
p689
aVskydance productions
p690
aVmanic street preachers
p691
aVdominic cooper
p692
aVgeorge ives
p693
aVghost dad
p694
aVespn
p695
aVtoro y moi
p696
aVgiles martin
p697
aVmarnie
p698
aVbobby's dinner battle
p699
aVguy chambers
p700
aVbarenaked ladies
p701
aVseagulls over sorrento
p702
aVbattle circus
p703
aV19 entertainment
p704
aValexander skarsg\u005cu00e5rd
p705
aVjudd, for the defense
p706
aVjustin meldal-johnsen
p707
aVmarion, virginia
p708
aValfred hitchcock presents
p709
aVoff the rack
p710
aVbalaji motion pictures
p711
aVfinn hudson
p712
aVjamie grace
p713
aVmamoru miyano
p714
aVdj premier
p715
aVshoegazing
p716
aVdrafthouse films
p717
aVblack 13
p718
aVcarrie-anne moss
p719
aVponcie ponce
p720
aVcarmen machi
p721
aVsaqib saleem
p722
aVnick raskulinecz
p723
aVkelly rowland
p724
aVgeorgia rule
p725
aVjohn callen
p726
aVrobert kazinsky
p727
aVhal needham
p728
aVthunder alley
p729
aVnormand corbeil
p730
aVpop punk
p731
aVshadow of a man
p732
aVwild guitar
p733
aVroot sports
p734
aVromancing the stone
p735
aVgabrielle aplin
p736
aVchris evans
p737
aVsarah solemani
p738
aVcynthia stevenson
p739
aVmaster of the world
p740
aVready for love
p741
aVdonald faison
p742
aVstax records
p743
aVmitchell froom
p744
aVsong of russia
p745
aVget to the point
p746
aVrichard brooker
p747
aVmeta golding
p748
aVdarkchild
p749
aVmaika monroe
p750
aVcathy weseluck
p751
aVjorma taccone
p752
aVbombadil
p753
aVclassical music
p754
aVwxxa-tv
p755
aVskinny puppy
p756
aVstarsmith
p757
aVcrazy, sexy, cool: the tlc story
p758
aVwinged victory
p759
aVhemlock grove
p760
aVjohnny messner
p761
aVboz boorer
p762
aVmighty aphrodite
p763
aVtim goldsworthy
p764
aVchris rock
p765
aVonerepublic
p766
aVamerican hustle
p767
aVadil hussain
p768
aVfour of a kind
p769
aVghostface killah
p770
aVmariah carey
p771
aVboards of canada
p772
aVshark night
p773
aVriz ahmed
p774
aVsanford
p775
aVmanchester, new hampshire
p776
aVno i.d.
p777
aVdel tenney
p778
aVdavid zucker
p779
aVramin bahrani
p780
aVpuccini for beginners
p781
aVdrone music
p782
aVdavid andrews
p783
aVallmusic
p784
aVmuscle beach party
p785
aVanschutz entertainment group
p786
aVbig boi
p787
aVurban tarzan
p788
aVkayne west
p789
aVnorth platte, nebraska
p790
aVelizabeth olin
p791
aVpolyvinyl record co.
p792
aVclub fed
p793
aVmartin ferrero
p794
aVkathy najimy
p795
aVearth girls are easy
p796
aVwgba-tv
p797
aVdiane clare
p798
aVbillie joe armstrong
p799
aVnightmares on wax
p800
aVall the right noises
p801
aVabbott and costello meet the mummy
p802
aVrepublic nashville
p803
aVpaula deen
p804
aVlist of american television shows currently in production
p805
aVpaul walker
p806
aVedna krabappel
p807
aVarmy of lovers
p808
aVcraig hall
p809
aVseattle post-intelligencer
p810
aVcujo
p811
aVelectro-industrial
p812
aVkevin macdonald
p813
aVnoah baumbach
p814
aVjared harris
p815
aVwttw
p816
aVforrest kline
p817
aVla shrinks
p818
aVprotest the hero
p819
aVside effects
p820
aVwtto
p821
aVwilmington, north carolina
p822
aVgabriel basso
p823
aVnino baragli
p824
aVmark fisher
p825
aVjosh lawson
p826
aVspecter at the feast
p827
aVal jazeera media network
p828
aVafrobeat
p829
aVjeffrey nachmanoff
p830
aVtony hale
p831
aVspencer treat clark
p832
aVrostrum records
p833
aValternative press
p834
aVgannett company
p835
aVduchess of idaho
p836
aVbritt robertson
p837
aVfrank rogers
p838
aVspring break
p839
aVelectric six
p840
aVoscilloscope laboratories
p841
aVski party
p842
aValakazam the great
p843
aVmonsters and mysteries in america
p844
aVanimals as leaders
p845
aVsteve carell
p846
aVcarol kane
p847
aVneil patrick harris
p848
aVbody of proof
p849
aVstarfucker
p850
aVjeremy brock
p851
aVdennis kucinich
p852
aVwarner music nashville
p853
aVjaideep sahni
p854
aVmiss alabama usa
p855
aVdeep cotton
p856
aVindustrial metal
p857
aVdjimon honsou
p858
aVon the buses
p859
aVmaya lin: a strong clear vision
p860
aVfeature film
p861
aVjimmy chamberlin complex
p862
aV2013 in australian television
p863
aViggy azalea
p864
aVra\u005cu00fal ar\u005cu00e9valo
p865
aVgoo goo dolls
p866
aVnancy pelosi
p867
aVword of mouth
p868
aVcherry red records
p869
aVan alan smithee film: burn hollywood burn
p870
aVchris morgan
p871
aVcnbc
p872
aVcomcast sportsnet chicago
p873
aVal jazeera english
p874
aVkucw
p875
aVnikki & sara live
p876
aVbrian van holt
p877
aVback into the woods
p878
aVdesperate journey
p879
aVeasy to love
p880
aVuncle grandpa
p881
aVchristian slater
p882
aVlake bell
p883
aVamrita singh
p884
aVjason schwartzmann
p885
aVviolent playground
p886
aVbright antenna
p887
aVparineeti chopra
p888
aVdavid bowie
p889
aVlos angeles, california
p890
aVtelescape
p891
aVbeneath the planet of the apes
p892
aVphil hay
p893
aVfueled by ramen
p894
aVkeane
p895
aVnat wolff
p896
aVfolk rock
p897
aVbeautiful creatures
p898
aVtakepart
p899
aVmike will made it
p900
aVpink floyd\u005cu2014the wall
p901
aVj.r. rotem
p902
aVwealthtv
p903
aVlin media
p904
aVjason statham
p905
aVrandy jackson
p906
aVmichael eklund
p907
aVtexasville
p908
aVaftermath entertainment
p909
aVtodd berger
p910
aVsteven brill
p911
aVmeagan good
p912
aValan parsons
p913
aVdavid koepp
p914
aVvengeance falls
p915
aVatlantic city, new jersey
p916
aVshirley manson
p917
aVmichael pena
p918
aVtrailer park boys: the movie
p919
aVregions of light and sound of god
p920
aVpedro almod\u005cu00f3var
p921
aVbrand new machine
p922
aVbelow deck
p923
aVdiego luna
p924
aVshindig!
p925
aVrebellious soul
p926
aVhearst television
p927
aVpost-rock
p928
aVjeremy renner
p929
aVbetter together
p930
aVscott charles stewart
p931
aVlitton's weekend adventure
p932
aVdarrell roodt
p933
aVmiss congeniality 2: armed and fabulous
p934
aVtaylor mead
p935
aVstop, you're killing me
p936
aVgeorgia engel
p937
aVduke stroud
p938
aVray park
p939
aVparamount pictures
p940
aVspanish affair
p941
aVdeep purple
p942
aVpercy's progress
p943
aVcourtney solomon
p944
aVcash money records
p945
aVjustin timberlake
p946
aVsylvester mccoy
p947
aVadam dutkiewicz
p948
aVa little romance
p949
aVwccb
p950
aVtommy wirkola
p951
aVground floor
p952
aVquincy's quest
p953
aVtarzoon: shame of the jungle
p954
aVaudio adrenaline
p955
aVpeter capaldi
p956
aVjonas l.a.
p957
aVkai po che!
p958
aVcasino confidential
p959
aVscott porter
p960
aVcome back to the five and dime, jimmy dean, jimmy dean
p961
aVi wonder who's killing her now?
p962
aVjulia louis-dreyfus
p963
aVjoel hyatt
p964
aVjoshua harto
p965
aVanna mcgahan
p966
aVrebel wilson
p967
aVrafe spall
p968
aVladybug ladybug
p969
aVtropic\u005cu00e1lia
p970
aVlance gross
p971
aVdavid levien
p972
aVgizmodo: the gadget testers
p973
aVbrian howes
p974
aVludovico einaudi
p975
aVunited states secretary of state
p976
aVhollywood undead
p977
aVin the name of the father
p978
aVanil kapoor
p979
aVstar wars episode iv: a new hope
p980
aVbass music
p981
aVmatthew modine
p982
aVjonathan keltz
p983
aVwiley
p984
aVfaster, pussycat! kill! kill!
p985
aVyul vazquez
p986
aValternative metal
p987
aVcolumbia records
p988
aVhalo of blood
p989
aVjon gooch
p990
aVraging bull
p991
aVlenka
p992
aVjacki weaver
p993
aVkieran culkin
p994
aVray harryhausen
p995
aVcsi: crime scene investigation
p996
aVgrown ups 2
p997
aVblack gunn
p998
aVgeoffrey s. fletcher
p999
aVswamp pawn
p1000
aVsouthie rules
p1001
aVlast summer
p1002
aVtristar pictures
p1003
aVborn on the fourth of july
p1004
aVdeerfield media
p1005
aVjack paar
p1006
aVstephen gaghan
p1007
aVwews-tv
p1008
aVdanger mouse
p1009
aVmontgomery, alabama
p1010
aVferngully: the last rainforest
p1011
aVonce upon a time in wonderland
p1012
aVashley judd
p1013
aVgood guys wear black
p1014
aVhaunted house
p1015
aVarcade fire
p1016
aVjoan rivers
p1017
aVcomcast sportsnet houston
p1018
aVkate beckett
p1019
aVandrea osv\u005cu00e1rt
p1020
aVpass the ammo
p1021
aVsalt lake city, utah
p1022
aVin living color
p1023
aVfamily-friendliness
p1024
aVcraig robinson
p1025
aVjimmy hayward
p1026
aVfull ginsburg
p1027
aVsound system
p1028
aVhuma qureshi
p1029
aVhenry cavill
p1030
aVle secret
p1031
aVlucky 7
p1032
aVjoe barresi
p1033
aVmr. baseball
p1034
aVmitt romney
p1035
aVdave bautista
p1036
aVcappadonna
p1037
aVa private function
p1038
aVbryan singer
p1039
aVnu metal
p1040
aVgeneral electric
p1041
aVdave hause
p1042
aV18th critics' choice awards
p1043
aVjoe ahearne
p1044
aVroad house
p1045
aVsanta claus conquers the martians
p1046
aVtrophy scars
p1047
aVwhat maisie knew
p1048
aVdomino records
p1049
aVbugsy malone
p1050
aVdfa
p1051
aVellie goulding
p1052
aVtina fey
p1053
aVwhite squall
p1054
aVadam gontier
p1055
aVneal mcdonough
p1056
aVk\u005cu014dz\u005cu014d shioya
p1057
aVkid cudi
p1058
aVsony pictures entertainment
p1059
aVpanic room
p1060
aVonce upon a time in america
p1061
aVyou must be joking!
p1062
aVeurodance
p1063
aVdrinking buddies
p1064
aVzoe kravitz
p1065
aVamanda bynes
p1066
aVjohnny k
p1067
aVshooting guard
p1068
aV3oh!3
p1069
aVbounce music
p1070
aVrelease the panic
p1071
aVwafb
p1072
aVkatherine heigl
p1073
aVnaomi watts
p1074
aVjung woong-in
p1075
aVd'banj
p1076
aVd\u005cu00e9j\u005cu00e0 vu
p1077
aVbetsy's wedding
p1078
aVdemi lovato
p1079
aVuniversal pictures
p1080
aVsantino fontana
p1081
aVben hillier
p1082
aVprithviraj sukumaran
p1083
aVwelcome to the family
p1084
aVlast resort
p1085
aVifc films
p1086
aVjordi moll\u005cu00e0
p1087
aVjoey king
p1088
aVsgt. pepper's lonely hearts club band
p1089
aVarkansas business publishing group
p1090
aVmoon landing
p1091
aVlockwood broadcast group
p1092
aVred 2
p1093
aVl.a. law
p1094
aVwalter lassally
p1095
aVgaby
p1096
aVgetting on
p1097
aVlarri thomas
p1098
aVwcvb-tv
p1099
aVgirls' generation
p1100
aVcharles bradley
p1101
aVbrad anderson
p1102
aVmystery film
p1103
aVsteve faber
p1104
aVbig three television networks
p1105
aVkeeping up with the kardashians
p1106
aVpalm springs, california
p1107
aVwsmv-tv
p1108
aVhome alone 3
p1109
aVstewart lerman
p1110
aVluciano vincenzoni
p1111
aVjames nesbitt
p1112
aVthree smart girls grow up
p1113
aVbilly two hats
p1114
aVneils children
p1115
aVnikki blonsky
p1116
aVkevin bacon
p1117
aVlow winter sun
p1118
aVinternet movie database
p1119
aVan eye for an eye
p1120
aV2007 in film
p1121
aVamala paul
p1122
aVdean norris
p1123
aVtydi
p1124
aVdark skies
p1125
aVteo olivares
p1126
aVdream wife
p1127
aVtim gunn
p1128
aVzeromancer
p1129
aVtrenton, new jersey
p1130
aVup the chastity belt
p1131
aVpeter t\u005cu00e4gtgren
p1132
aVarya
p1133
aVback in the game
p1134
aVvivica a. fox
p1135
aVbrass target
p1136
aVwhite house down
p1137
aVdon giovanni records
p1138
aVask any girl
p1139
aVyou're in the army now
p1140
aVnight moves
p1141
aVamitabh bachchan
p1142
aVnba tv
p1143
aVbackstreet boys
p1144
aVwoi-dt
p1145
aVray donovan
p1146
aVbroken city
p1147
aVblurred lines
p1148
aVlunch hour
p1149
aVdirectv sports networks
p1150
aVterry rhoads
p1151
aVlove in the future
p1152
aVshawn levy
p1153
aVfrank bank
p1154
aVjohn palmer
p1155
aVgospel music
p1156
aVferry cross the mersey
p1157
aVamerican gun
p1158
aVroadrunner records
p1159
aVguns in the heather
p1160
aVbig krit
p1161
aVsamuel l. jackson
p1162
aVpankaj kapur
p1163
aVjessica hecht
p1164
aVjulia roberts
p1165
aVdavis rules
p1166
aVdivya dutta
p1167
aVdie hard with a vengeance
p1168
aVtv by the numbers
p1169
aVzuus country
p1170
aVkwon hyun-sang
p1171
aVoliver twist
p1172
aVval kilmer
p1173
aVdisney channel
p1174
aVflorence ryerson
p1175
aVneo-psychedelia
p1176
aVdaniel mays
p1177
aVpatricia clarkson
p1178
aVmorris chestnut
p1179
aVnew wave music
p1180
aVrobert montgomery presents
p1181
aV2013 in british television
p1182
aVcody simpson
p1183
aVkim basinger
p1184
aVmonte carlo
p1185
aVdish nation
p1186
aVdown the wind
p1187
aVjerome \u005c"j-roc\u005c" harmon
p1188
aVniels arden oplev
p1189
aVin a warzone
p1190
aVsofia coppola
p1191
aVbangerz
p1192
aVrob huebel
p1193
aVbrain donors
p1194
aVwagon train
p1195
aVsandy vee
p1196
aVlindsay lohan
p1197
aVfox star studios
p1198
aVperils of the deep blue
p1199
aVinside out music
p1200
aVdeepraj rana
p1201
aVstate secret
p1202
aVtooth & nail records
p1203
aVdrew goddard
p1204
aVhouse of anubis
p1205
aVfashion police
p1206
aVedge of eternity
p1207
aVriki lindhome
p1208
aVirma p. hall
p1209
aVstalag 17
p1210
aVfran walsh
p1211
aVbradford cox
p1212
aVvampyres
p1213
aVelizabeth debicki
p1214
aVwho was that lady?
p1215
aVin god we tru$t
p1216
aVchristina applegate
p1217
aVkatrina kaif
p1218
aVjerry dexter
p1219
aVtom bergeron
p1220
aVbunny o'hare
p1221
aVone more train to rob
p1222
aVkevin mcmahon
p1223
aVkennedy center honors
p1224
aVkxvo
p1225
aVfran kranz
p1226
aVkmeg
p1227
aVrobin hood: prince of thieves
p1228
aVleonard part 6
p1229
aVjane lynch
p1230
aVemeril's florida
p1231
aVsymphonic metal
p1232
aVmacy's
p1233
aVjake and the fatman
p1234
aVblabbermouth.net
p1235
aVliz w. garcia
p1236
aVwoodkid
p1237
aVreliable sources
p1238
aVswizz beatz
p1239
aVwho's the man?
p1240
aVmelina kanakaredes
p1241
aVmike batt
p1242
aVmiley cyrus
p1243
aVwe can't stop
p1244
aVbox office mojo
p1245
aVleverne mcdonnell
p1246
aVshadowlands
p1247
aVspare the rod
p1248
aVoperation bullshine
p1249
aVolean, new york
p1250
aVmeg foster
p1251
aVjump into hell
p1252
aVi never promised you a rose garden
p1253
aVcrossover thrash
p1254
aVcoffee and cigarettes
p1255
aVflint, michigan
p1256
aVpretty wicked moms
p1257
aVmiguel \u005cu00c1ngel silvestre
p1258
aVstacy keach
p1259
aV2013 american league division series
p1260
aVchristopher mintz-plasse
p1261
aVharry potter
p1262
aVhands of a stranger
p1263
aVed harcourt
p1264
aVleo abrahams
p1265
aVnetflix
p1266
aVtorn curtain
p1267
aVchristian camargo
p1268
aVsophiya haque
p1269
aVgolden boy
p1270
aVmotorpsycho
p1271
aVjames ransone
p1272
aVwithnail and i
p1273
aVsmokey and the bandit
p1274
aVoddfellows
p1275
aVnia long
p1276
aVmusic choice
p1277
aVrob roy
p1278
aVwgn-tv
p1279
aVmidnight in the garden of good and evil
p1280
aVdylan mcdermott
p1281
aVking kong
p1282
aVpost-britpop
p1283
aVmike o'malley
p1284
aVhorror punk
p1285
aVcolm meaney
p1286
aVmove over, darling
p1287
aVspike lee
p1288
aVsearch for tomorrow
p1289
aVnothing but the best
p1290
aVbig tips texas
p1291
aVgypsy punk
p1292
aVken scott
p1293
aVcountry music
p1294
aVmichelle obama
p1295
aVclash of the titans
p1296
aV2013 in philippine television
p1297
aVmoira buffini
p1298
aVmynetworktv
p1299
aVa different world
p1300
aVcolours in the dark
p1301
aV2013 in science
p1302
aVbig machine records
p1303
aVgeorges descri\u005cu00e8res
p1304
aVit's a mad, mad, mad, mad world
p1305
aVkcbs-tv
p1306
aVe1 music
p1307
aVjulie maroh
p1308
aVduopoly
p1309
aVloose cannons
p1310
aVkarnivool
p1311
aVamericathon
p1312
aVxiaoshenyang
p1313
aVinside edition
p1314
aVdan mazer
p1315
aVkotch
p1316
aVkgpe
p1317
aVsweet dreams
p1318
aV70th venice international film festival
p1319
aValternative hip hop
p1320
aVkeegan-michael key
p1321
aVsouthside 1-1000
p1322
aVdancehall
p1323
aVdemian bichir
p1324
aVchris brinker
p1325
aVpacific rim
p1326
aVcrain's chicago business
p1327
aVpiano rock
p1328
aVscott eastwood
p1329
aVj.a.c.k.
p1330
aVdemetrius and the gladiators
p1331
aVlethal weapon
p1332
aVfarm strong
p1333
aVbig bad voodoo daddy
p1334
aVrao ramesh
p1335
aVmatt damon
p1336
aV2013 cannes film festival
p1337
aVrock all night
p1338
aVjames blunt
p1339
aVmatthew mcconaughey
p1340
aVjeff goldblum
p1341
aVnicki minaj
p1342
aValternative country
p1343
aVlena headey
p1344
aVdoctor who
p1345
aVkitar\u005cu014d
p1346
aVbob barker
p1347
aVbeach party
p1348
aVdavid s. goyer
p1349
aVpriya anand
p1350
aVgarage rock
p1351
aVnewport television
p1352
aValabama crimson tide football
p1353
aVamerican sniper
p1354
aVben and kate
p1355
aVlove thy neighbor
p1356
aVout of the dark
p1357
aV39th saturn awards
p1358
aVtommy tycho
p1359
aVkunal khemu
p1360
aVcbs interactive
p1361
aVcnn
p1362
aVutica, new york
p1363
aVlove's labour's lost
p1364
aVjuana molina
p1365
aVreggae fusion
p1366
aV{"parse":{"title":"list of 2013 albums","revid":579729724,"text":{"*":"<table class=\u005c"metadata plainlinks ambox ambox-content ambox-primary_sources\u005c" role=\u005c"presentation\u005c">\u005cn<tr>\u005cn<td class=\u005c"mbox-image\u005c">\u005cn<div style=\u005c"width:52px;\u005c"><a href=\u005c"/wiki/file:question_book-new.svg\u005c" class=\u005c"image\u005c"><img alt=\u005c"question book-new.svg\u005c" src=\u005c"//upload.wikimedia.org/wikipedia/en/thumb/9/99/question_book-new.svg/50px-question_book-new.svg.png\u005c" width=\u005c"50\u005c" height=\u005c"39\u005c" srcset=\u005c"//upload.wikimedia.org/wikipedia/en/thumb/9/99/question_book-new.svg/75px-question_book-new.svg.png 1.5x, //upload.wikimedia.org/wikipedia/en/thumb/9/99/question_book-new.svg/100px-question_book-new.svg.png 2x\u005c" /></a></div>\u005cn</td>\u005cn<td class=\u005c"mbox-text\u005c"><span class=\u005c"mbox-text-span\u005c">this article <b>relies on <a href=\u005c"/wiki/wikipedia:verifiability\u005c" title=\u005c"wikipedia:verifiability\u005c">references</a> to <a href=\u005c"/wiki/wikipedia:no_original_research#primary.2c_secondary_and_tertiary_sources\u005c" title=\u005c"wikipedia:no original research\u005c">primary sources</a></b>. <span class=\u005c"hide-when-compact\u005c">please add references to <a href=\u005c"/wiki/wikipedia:no_original_research#primary.2c_secondary_and_tertiary_sources\u005c" title=\u005c"wikipedia:no original research\u005c">secondary or tertiary sources</a>.</span> <small><i>
p1367
aVmonterey, california
p1368
aVwjrt-tv
p1369
aVbrian koppelman
p1370
aVmichael bubl\u005cu00e9
p1371
aValexandra daddario
p1372
aVtwo lanes of freedom
p1373
aVcameron mizell
p1374
aVdreamgirls
p1375
aVbrooklyn bridge
p1376
aVmsnbc.com
p1377
aVwithout a trace
p1378
aVsony pictures animation
p1379
aVyoo jun-sang
p1380
aVzachary quinto
p1381
aVkatherine chancellor
p1382
aVit takes a thief
p1383
aVred chillies entertainment
p1384
aVsixteen candles
p1385
aVtake care of my little girl
p1386
aVhowie beck
p1387
aVfran\u005cu00e7ois chau
p1388
aVsitting bull
p1389
aVshared services
p1390
aVmila kunis
p1391
aVzero dark thirty
p1392
aVvh1 soul
p1393
aVpeter duryea
p1394
aVpop music
p1395
aVknvn
p1396
aValias smith and jones
p1397
aV98 degrees
p1398
aV2013 in home video
p1399
aVrobin atkin downes
p1400
aVart malik
p1401
aValessandro camon
p1402
aVtim mccarver
p1403
aVscience-fiction film
p1404
aVed banger records
p1405
aVpeter weller
p1406
aVsurviving christmas
p1407
aVbob godfrey
p1408
aVjed brophy
p1409
aVsebastien grainger
p1410
aVnbc sports group
p1411
aVpost-dubstep
p1412
aVlake placid
p1413
aVkenny ball
p1414
aVkaren sisco
p1415
aVdonald cragen
p1416
aVtales of terror
p1417
aVwhite lies
p1418
aVvaani kapoor
p1419
aVseattle mariners
p1420
aVorange factory music
p1421
aVbill clinton
p1422
aVduck down music inc.
p1423
aVbottle shock
p1424
aVit's alive
p1425
aVairbourne
p1426
aVlaserblast
p1427
aVfresno, california
p1428
aVblue-eyed soul
p1429
aVa lovely way to die
p1430
aVradio killa records
p1431
aVwhere you stand
p1432
aVkey largo
p1433
aVtips music films
p1434
aVtake the high ground!
p1435
aVopen road films
p1436
aVavex trax
p1437
aVa little night music
p1438
aVuniversal motown records
p1439
aVevelyn sharma
p1440
aVadam brown
p1441
aVlady jane
p1442
aVguy garvey
p1443
aVloving couples
p1444
aVmelora walters
p1445
aV90210
p1446
aVbernard butler
p1447
aVpradeep rawat
p1448
aVrob zombie
p1449
aVedwin hodge
p1450
aVwe the best
p1451
aVmark ruffalo
p1452
aVrhino entertainment
p1453
aVtrutv
p1454
aVfoodiculous
p1455
aVsayaji shinde
p1456
aVhammer of the gods
p1457
aVfull circle
p1458
aVsnow white's poison bite
p1459
aVarthur newman
p1460
aVjason acuna
p1461
aVindependent news network
p1462
aVinherit the wind
p1463
aVceline dion
p1464
aVruth wilson
p1465
aVc. j. nitkowski
p1466
aVexclaim!
p1467
aVmargaret pellegrini
p1468
aVsky ferreira
p1469
aVchicago fire soccer club
p1470
aVrobert redford
p1471
aVfran warren
p1472
aVkxtf
p1473
aVforecasting the end
p1474
aVben-hur
p1475
aVa haunted house
p1476
aVdue south
p1477
aVman of the century
p1478
aVmodular recordings
p1479
aVhappy endings
p1480
aVpostcards from the edge
p1481
aV2013 world series
p1482
aVacademy award for best picture
p1483
aV2012-13 united states network television schedule
p1484
aVcloser to the truth
p1485
aVhigh terrace
p1486
aVgabriella wilde
p1487
aVjason keller
p1488
aVtara strong
p1489
aVsuicidal tendencies
p1490
aVvanessa hudgens
p1491
aVneptune's daughter
p1492
aVsam and friends
p1493
aVjessica lucas
p1494
aVhamish linklater
p1495
aVcharley varrick
p1496
aVbehind the candelabra
p1497
aVandrew wade
p1498
aVadelitas way
p1499
aVscience fiction
p1500
aValiz\u005cu00e9e
p1501
aVjosh hamilton
p1502
aVkick-ass 2
p1503
aVsound city
p1504
aVjohn patrick amedori
p1505
aVhomicide: life on the street
p1506
aVmichaela watkins
p1507
aV143 records
p1508
aVabc news
p1509
aVginnifer goodwin
p1510
aVkkjb
p1511
aVanother life
p1512
aVcarrie underwood
p1513
aVfxx
p1514
aVmonique ganderton
p1515
aVmark margolis
p1516
aVart rock
p1517
aVethan johns
p1518
aVeli roth
p1519
aVi'm married to a...
p1520
aVxenia kalogeropoulou
p1521
aVfollow me, boys!
p1522
aVcomedy central
p1523
aVbill pertwee
p1524
aVsony records
p1525
aVwcbs-tv
p1526
aVproperty envy
p1527
aVdrag city
p1528
aVella joyce
p1529
aVlife on mars
p1530
aVscar the martyr
p1531
aV2013 detroit tigers season
p1532
aVsomething in the wind
p1533
aVwls-tv
p1534
aVstar trek: the original series
p1535
aVkeith olbermann
p1536
aVarmy wives
p1537
aVmanoj bajpai
p1538
aVevangeline lilly
p1539
aVameesha patel
p1540
aVadrienne bailon
p1541
aVhello, dolly!
p1542
aVtina fay
p1543
aVolga kurylenko
p1544
aVto rome with love
p1545
aV9\u005cu00bd weeks
p1546
aVthat '70s show
p1547
aVandy garcia
p1548
aValia shawkat
p1549
aVavenged sevenfold
p1550
aVm.o.
p1551
aVrobbie amell
p1552
aVjosh appelbaum
p1553
aVjazz rock
p1554
aVa fish called wanda
p1555
aVdirectv
p1556
aVdisarm the descent
p1557
aVdance music
p1558
aVhossein amini
p1559
aVshiloh fernandez
p1560
aVunited states golf association
p1561
aVepitaph records
p1562
aVspike jonze
p1563
aVjoe conley
p1564
aVdakota goyo
p1565
aVbill burr
p1566
aVallison janney
p1567
aVusa today
p1568
aVpardon my french
p1569
aVanna faris
p1570
aVthanks for sharing
p1571
aVtaggart
p1572
aVguy stevens
p1573
aVdavid soren
p1574
aVburnt offerings
p1575
aVken venturi
p1576
aVpaul eenhoorn
p1577
aVchandra mohan
p1578
aVrugrats
p1579
aVblack sabbath
p1580
aVstarsky and hutch
p1581
aVziegfeld follies
p1582
aVa man for all seasons
p1583
aVturner sports
p1584
aVfly away home
p1585
aVamy brenneman
p1586
aVkatie aselton
p1587
aVscenic route
p1588
aVsteve mac
p1589
aV2013 in literature
p1590
aVallan arbus
p1591
aVtyler perry's for better or worse
p1592
aVovo sound
p1593
aVchicago, illinois
p1594
aVdive bomber
p1595
aVtom hanks
p1596
aVjames franco
p1597
aVlynn cohen
p1598
aVglobe newswire
p1599
aVa home of your own
p1600
aVmelodic death metal
p1601
aVdibakar banerjee
p1602
aVmazzy star
p1603
aVpaul weitz
p1604
aVwtii records
p1605
aVbram stoker's dracula
p1606
aVshakib khan
p1607
aVbelizaire the cajun
p1608
aVarmin van buuren
p1609
aVcarry on cabby
p1610
aV2010 in film
p1611
aVyou kill me
p1612
aVc.c. and company
p1613
aVnana patekar
p1614
aVcsi: ny
p1615
aVdavid twohy
p1616
aVmatt dillon
p1617
aVandy hardy's double life
p1618
aVwho's been sleeping in my bed?
p1619
aVwabm
p1620
aVcbs
p1621
aV61st famas awards
p1622
aVwill forte
p1623
aVzac efron
p1624
aVmaking mr. right
p1625
aVdylan baker
p1626
aVkelly clarkson
p1627
aVchris renaud
p1628
aVfoxygen
p1629
aVescape to victory
p1630
aVhearst corporation
p1631
aVdolby laboratories
p1632
aVbetween friends
p1633
aVrabbids invasion
p1634
aVwycn-lp
p1635
aVgerald mcboing-boing
p1636
aVlojinx
p1637
aVsara loren
p1638
aVcoffy
p1639
aVron howard
p1640
aVchad gilbert
p1641
aVrichard jenkins
p1642
aVsurfer's paradise
p1643
aVdr. kildare
p1644
aVjay sean
p1645
aVdana stevens
p1646
aVlady and the tramp
p1647
aVaoi y\u005cu016bki
p1648
aVhopeless records
p1649
aVtalking bad
p1650
aVtoby jones
p1651
aVpat summerall
p1652
aVa distant thunder
p1653
aVdan fogler
p1654
aVnbc nightly news
p1655
aVmelodic hardcore
p1656
aVthat old feeling
p1657
aVp. j. byrne
p1658
aVfuturama
p1659
aVlindy booth
p1660
aVwjkt
p1661
aVrachel korine
p1662
aVhellogoodbye
p1663
aV50 cent
p1664
aVwilliam froug
p1665
aVgolden needles
p1666
aVexperimental rock
p1667
aVmasako nozawa
p1668
aVterry date
p1669
aVuniversal music latino
p1670
aVjoely richardson
p1671
aVamazon women on the moon
p1672
aVparameswara art productions
p1673
aVportia doubleday
p1674
aVstoke city fc
p1675
aVwwor-tv
p1676
aVjoey sturgis
p1677
aVken norton
p1678
aVfunny bones
p1679
aVthey died with their boots on
p1680
aVhands like houses
p1681
aVmichael caine
p1682
aVjames hetfield
p1683
aVmirabai films
p1684
aVok!tv
p1685
aVescape from tomorrow
p1686
aVronin
p1687
aVjohn hodge
p1688
aVshakira
p1689
aVwild deep
p1690
aVewan mcgregor
p1691
aVjohn bell
p1692
aVpunk goes...
p1693
aVnick records
p1694
aVleung siu-lung
p1695
aVolympus has fallen
p1696
aVtrue panther sounds
p1697
aVmiles kane
p1698
aVmatt lucas
p1699
aV2013 coca-cola 600
p1700
aVkalki koechlin
p1701
aVjames gunn
p1702
aVkswt
p1703
aVpassed away
p1704
aVjosh kumra
p1705
aVchapter ii
p1706
aVtim meadows
p1707
aVskitszo
p1708
aVon her majesty's secret service
p1709
aValtered state
p1710
aVmary elizabeth winstead
p1711
aVmickey rose
p1712
aVsri venkateswara cine chitra
p1713
aVbuddy faro
p1714
aValice englert
p1715
aVjoseph kosinski
p1716
aVrescue & restore
p1717
aVa perfect couple
p1718
aVkendall gill
p1719
aVneo soul
p1720
aVjohnny depp
p1721
aVpaul giamatti
p1722
aVhalcyon days
p1723
aVyou can't see 'round corners
p1724
aVharish shankar
p1725
aVgreg kramer
p1726
aValec baldwin
p1727
aVperry mason
p1728
aValan whicker
p1729
aVron dias
p1730
aVlittle jungle boy
p1731
aVhappy ever afters
p1732
aVjoe roth
p1733
aVcheyenne, wyoming
p1734
aVunder the rainbow
p1735
aVsanta barbara, california
p1736
aVmichael douglas
p1737
aVgross misconduct
p1738
aVzachary gordon
p1739
aVmackenzie foy
p1740
aVzgs communications
p1741
aVwilliam a. graham
p1742
aVall that
p1743
aVlast gang records
p1744
aVroc-a-fella records
p1745
aVsome may live
p1746
aVheather locklear
p1747
aVparadise, hawaiian style
p1748
aVgeorge jones
p1749
aVkidd kraddick in the morning
p1750
aVaj bowen
p1751
aVcockneys vs zombies
p1752
aVshine a light
p1753
aVbutch walker
p1754
aVrhys wakefield
p1755
aVwhat not to wear
p1756
aVbecky johnston
p1757
aVdylan o'brien
p1758
aVbill guttentag
p1759
aVray bolger
p1760
aVgraham mctavish
p1761
aVrod stewart
p1762
aVm\u005cu00edriam col\u005cu00f3n
p1763
aVshort term 12
p1764
aVjacqueline brookes
p1765
aVkou shibasaki
p1766
aVfisher communications
p1767
aVthe-dream
p1768
aVpower metal
p1769
aVkenneth choi
p1770
aVmannix
p1771
aVspring breakers
p1772
aVmountain time zone
p1773
aVnatalie tran
p1774
aVkieran o'brien
p1775
aVcaptain corelli's mandolin
p1776
aVtanvi azmi
p1777
aVmanjot singh
p1778
aVmary j. blige
p1779
aVs\u005cu00e9ance on a wet afternoon
p1780
aVmonday mornings
p1781
aVrabid records
p1782
aVsean anders
p1783
aVjoe taslim
p1784
aVglam rock
p1785
aVjohn cleese
p1786
aVblame it on rio
p1787
aVa bucket of blood
p1788
aVbrahmanandam
p1789
aVdavid draiman
p1790
aVvalleyheart
p1791
aVvishal bhardwaj
p1792
aVtribune broadcasting
p1793
aVwhat's up nurse!
p1794
aVray stevenson
p1795
aVmax martin
p1796
aVsuzanne krull
p1797
aVcannonball run ii
p1798
aVwho killed mary what's 'er name?
p1799
aVjavier bardem
p1800
aVmala rodr\u005cu00edguez
p1801
aVdar motion pictures
p1802
aVwallace shawn
p1803
aVtrouble will find me
p1804
aVray dolby
p1805
aVlove never fails
p1806
aVbill condon
p1807
aVheller in pink tights
p1808
aVkoki-tv
p1809
aVjim scott
p1810
aVcher
p1811
aVsid haig
p1812
aVderek hough
p1813
aVyou'll find out
p1814
aVmr. and mrs. bridge
p1815
aVeleanor friedberger
p1816
aVemergency alert system
p1817
aVeight below
p1818
aVlouis c.k.
p1819
aVsusan sarandon
p1820
aVpat derby
p1821
aVjoyce brothers
p1822
aVabc family
p1823
aVwwbt
p1824
aVganja & hess
p1825
aVeuropa report
p1826
aVchief operating officer
p1827
aVbokeem woodbine
p1828
aVmajor league soccer
p1829
aVnick swardson
p1830
aVdothan eagle
p1831
aVpbs newshour
p1832
aVitunes
p1833
aVpsychological thriller
p1834
aVeileen brennan
p1835
aVpreston lacy
p1836
aVsofia the first
p1837
aVhillbillys in a haunted house
p1838
aVfrankie j
p1839
aVwoody allen
p1840
aVif you leave
p1841
aVemilio estefan
p1842
aVshane filan
p1843
aVincident at phantom hill
p1844
aVregan burns
p1845
aVmassachusetts institute of technology police department
p1846
aVdecaydance
p1847
aVben garant
p1848
aVlaura cayouette
p1849
aVsub pop
p1850
aVstrange holiday
p1851
aVvanessa l. williams
p1852
aVboi-1da
p1853
aVlaw of the lawless
p1854
aVniall horan
p1855
aVnick frost
p1856
aVabbott and costello meet the keystone kops
p1857
aVmichael fassbender
p1858
aV2010 teen choice awards
p1859
aValvin rides again
p1860
aV2014 in television
p1861
aVliam hemsworth
p1862
aVbugsy
p1863
aVmorgan spurlock
p1864
aVlittle boots
p1865
aVsacha baron cohen
p1866
aVbattle of the year
p1867
aVleon vitali
p1868
aVvista chino
p1869
aVbamboo gods and iron men
p1870
aVpolydor records
p1871
aVhow the west was won
p1872
aVcarl franklin
p1873
aVkim coates
p1874
aVyou are there
p1875
aVsajid khan
p1876
aVoutrageous fortune
p1877
aVmarvin marvin
p1878
aVhelena carroll
p1879
aVhalley feiffer
p1880
aVguy-manuel de homem-christo
p1881
aVmark cuban
p1882
aVdanny trejo
p1883
aVhalls of dimension
p1884
aVgeneral mills
p1885
aVhelen marnie
p1886
aVstone of destiny
p1887
aVmonster magnet
p1888
aVatlas genius
p1889
aVdeaths in april 2013
p1890
aVsharlto copley
p1891
aVprivate equity firm
p1892
aVloaded weapon 1
p1893
aVstump the schwab
p1894
aVdon scardino
p1895
aVkings & queens
p1896
aVget scared
p1897
aVdeon cole's black box
p1898
aVartists and models
p1899
aVhorror comedy
p1900
aV19th screen actors guild awards
p1901
aVmorten veland
p1902
aVmgmt
p1903
aVamerica olivo
p1904
aVamerican athletic conference
p1905
aVfort wayne, indiana
p1906
aVkirk demicco
p1907
aVrate your music
p1908
aVjustin rutledge
p1909
aVwtmj-tv
p1910
aVlauryn hill
p1911
aVjack splash
p1912
aVelectrofolk
p1913
aVluis rosado
p1914
aVjohn lee hancock
p1915
aVa prize of arms
p1916
aVlucky me
p1917
aVtwelve reasons to die
p1918
aVdennis dugan
p1919
aVjena malone
p1920
aVelectronic rock
p1921
aVshipwreck men
p1922
aVlansing, michigan
p1923
aVtravis beacham
p1924
aVdark shadows
p1925
aVska punk
p1926
aVdianna agron
p1927
aVdetroit 9000
p1928
aVcasey affleck
p1929
aVsportsman channel
p1930
aVwho the
p1931
aVja rule
p1932
aVhome cinema
p1933
aVtechnical death metal
p1934
aV2004 in film
p1935
aVeva longoria
p1936
aVdann florek
p1937
aVhickey & boggs
p1938
aVspy game
p1939
aVjulien temple
p1940
aVwjla-tv
p1941
aVpatrick warburton
p1942
aVelyes gabel
p1943
aVcarlos de la garza
p1944
aVmark duplass
p1945
aVbob barlen
p1946
aVeydie gorm\u005cu00e9
p1947
aVrock island, illinois
p1948
aVesther williams
p1949
aVzoe bell
p1950
aVwbup
p1951
aVdangerous minds
p1952
aVaereo
p1953
aVpeter gilmore
p1954
aVhallmark hall of fame
p1955
aVwhat about now
p1956
aVnorth dallas forty
p1957
aVgerry day
p1958
aVrami malek
p1959
aVgreen bay, wisconsin
p1960
aVbad ink
p1961
aVjimmy kimmel
p1962
aVla crosse, wisconsin
p1963
aVfirst lady of the united states
p1964
aVyash raj films
p1965
aVsteve buscemi
p1966
aVrenacer
p1967
aVa madea christmas
p1968
aVleslie moonves
p1969
aVkenny chesney
p1970
aV9th wonder
p1971
aVscott moore
p1972
aVclark duke
p1973
aVlate show with david letterman
p1974
aVvictor rasuk
p1975
aVeye of the cat
p1976
aVrandeep hooda
p1977
aVsidney freedman
p1978
aVtoday's special
p1979
aVangus macinnes
p1980
aVfight master: bellator mma
p1981
aVterry crews
p1982
aVrichmond, virginia
p1983
aVmagda szubanski
p1984
aVat long last love
p1985
aVdoc mckinney
p1986
aVlocal natives
p1987
aVmatthew morrison
p1988
aVstephen fry
p1989
aV85th academy awards
p1990
aVkpho
p1991
aVtom savini
p1992
aVtao okamoto
p1993
aVtim armstrong
p1994
aVlos angeles times
p1995
aVsouth pacific
p1996
aVravenswood
p1997
aVmeet me in las vegas
p1998
aVprisoner of war
p1999
aVjimmy buffett
p2000
aVwong kar-wai
p2001
aVgtcr
p2002
aVgreta gerwig
p2003
aVjennifer lawrence
p2004
aVtrapper john, m.d.
p2005
aVzayn malik
p2006
aVmindy kaling
p2007
aVgil goldstein
p2008
aVprosthetic records
p2009
aVjohn jarratt
p2010
aVjoshua michael stern
p2011
aVaditya roy kapur
p2012
aVmichael welch
p2013
aVmidnight express
p2014
aVr&b
p2015
aVchristian cooke
p2016
aVlet's get married
p2017
aVmack wilds
p2018
aVchunk! no, captain chunk!
p2019
aVtransgressive records
p2020
aVed buller
p2021
aVadewale akinnuoye-agbaje
p2022
aVmegan mullally
p2023
aVjames hong
p2024
aVnice girl?
p2025
aVtouchstone pictures
p2026
aVcross of iron
p2027
aVtraitor's gate
p2028
aVover-exposed
p2029
aVpavan malhotra
p2030
aVhenry hugglemonster
p2031
aVa&m octone records
p2032
aVcraig mazin
p2033
aVlas vegas
p2034
aVmediabuzz
p2035
aVerin cummings
p2036
aVof montreal
p2037
aVmidnight madness
p2038
aVayan mukerji
p2039
aVdalip tahil
p2040
aVmarlon wayans
p2041
aVbattle of the v-1
p2042
aVscream, pretty peggy
p2043
aVgood morning and... goodbye!
p2044
aVjaws 3-d
p2045
aVgreen day
p2046
aV3d television
p2047
aVlaw & order
p2048
aVdr. jekyll and ms. hyde
p2049
aVmiddle class rut
p2050
aVelmore leonard
p2051
aVtotal divas
p2052
aVtragic hero records
p2053
aV20th century fox television
p2054
aVzoe saldana
p2055
aVwknx-tv
p2056
aVsimon rex
p2057
aVblackboard wars
p2058
aVmannequin cemetery
p2059
aVpaul scheer
p2060
aVtalk a good game
p2061
aVmorgan rose
p2062
aVbill cosby
p2063
aVbilly connolly
p2064
aVescape plan
p2065
aVan inspector calls
p2066
aVcloris leachman
p2067
aVmary, queen of scots
p2068
aVchuck harmony
p2069
aVextended play
p2070
aVatlantic records
p2071
aVbabes in toyland
p2072
aVjohn francis daley
p2073
aVlong. live. asap
p2074
aVmidland, texas
p2075
aVclosed circuit
p2076
aVmaria bello
p2077
aVw.w. and the dixie dancekings
p2078
aVluc besson
p2079
aVmark 'spike' stent
p2080
aVdrums of tahiti
p2081
aVwe are what we are
p2082
aVmailboat records
p2083
aVunion j
p2084
aVwhip hubley
p2085
aVstephenie mcmillan
p2086
aVfilmation
p2087
aVpresident of the united states
p2088
aVadrianne palicki
p2089
aVearth rocker
p2090
aVimitation of christ
p2091
aVcoogan's bluff
p2092
aVi hate my yard
p2093
aVtaylor kitsch
p2094
aVrachel boston
p2095
aV'n sync
p2096
aVjoe fontana
p2097
aVkobalt label services
p2098
aVequal vision records
p2099
aVbarack obama
p2100
aVtech n9ne
p2101
aVmatthew thompson
p2102
aVdouglas smith
p2103
aVjerry sandusky
p2104
aVweigel broadcasting
p2105
aVher favourite husband
p2106
aVmchale's navy
p2107
aVfox sports
p2108
aVsunset beach
p2109
aVlicense to drive
p2110
aV20th television
p2111
aVcity slang
p2112
aVal jazeera news
p2113
aVgriffin boice
p2114
aVpledgemusic
p2115
aVshannon kook
p2116
aVa civil action
p2117
aVryan merriman
p2118
aVmr. jealousy
p2119
aVarthur 3: the war of the two worlds
p2120
aVjulian mcmahon
p2121
aVbig rich atlanta
p2122
aVyograj singh
p2123
aVstaten island law
p2124
aVopio
p2125
aVbill murray
p2126
aV2 guns
p2127
aVlars stalfors
p2128
aVtv newser
p2129
aVmarc anthony
p2130
aVjohn hambrick
p2131
aVjessie j
p2132
aVotep
p2133
aVayelet zurer
p2134
aVrichard kind
p2135
aVterence winter
p2136
aVmax irons
p2137
aVpeter rabbit
p2138
aVjudy woodruff
p2139
aVmike fraser
p2140
aVmatt mattox
p2141
aVrudimental
p2142
aVrobert rodat
p2143
aVdeltron 3030
p2144
aVally mcbeal
p2145
aVdeath hunt
p2146
aVback to the beach
p2147
aVariel vromen
p2148
aVdenis o'hare
p2149
aVmtv
p2150
aVplay & win
p2151
aVpixar
p2152
aVsuburban commando
p2153
aVwild card
p2154
aVa time to kill
p2155
aVwise-tv
p2156
aVjordana brewster
p2157
aVhonolulu police department
p2158
aVjoya ahsan
p2159
aVdonnie brasco
p2160
aVdidn't it rain
p2161
aVjim jonsin
p2162
aVkarz-tv
p2163
aVblade brothers
p2164
aVlos angeles
p2165
aVkasi lemmons
p2166
aVsavan kotecha
p2167
aVpost-hardcore
p2168
aVkold-tv
p2169
aVzebrahead
p2170
aVkevin kline
p2171
aVwild 'n out
p2172
aV4ad records
p2173
aVthirty seconds to mars
p2174
aVwicked, wicked
p2175
aVbubblegum pop
p2176
aVomaha, nebraska
p2177
aVlist of water sports
p2178
aVkcau-tv
p2179
aVjoel edgerton
p2180
aVchapter 11, title 11, united states code
p2181
aVlife at the top
p2182
aVeric stonestreet
p2183
aVryan hemsworth
p2184
aVashley hamilton
p2185
aVaziz ansari
p2186
aValy michalka
p2187
aVsensations of 1945
p2188
aVben rappaport
p2189
aVfrom death to destiny
p2190
aVcast away
p2191
aVeven money
p2192
aVcapitol records
p2193
aVv2 records
p2194
aVdavid letterman
p2195
aVoz the great and powerful
p2196
aVbhaag milkha bhaag
p2197
aVleonard nimoy
p2198
aVdennis burkley
p2199
aVforever the sickest kids
p2200
aVjosh and s.a.m.
p2201
aVbulworth
p2202
aVsimon & simon
p2203
aVdolores heredia
p2204
aVuniversal music group
p2205
aVkeanu reeves
p2206
aVcharlie finn
p2207
aVlili taylor
p2208
aVtogether brothers
p2209
aVhe-man and the masters of the universe
p2210
aVflaming lips
p2211
aVmuse watson
p2212
aVtrial by jury
p2213
aVvikramaditya motwane
p2214
aVmayor of new york city
p2215
aVjulian cheung
p2216
aVmichelle rodriguez
p2217
aVgorky park
p2218
aVi'm in love with a church girl
p2219
aValbany, new york
p2220
aValice braga
p2221
aVchris walla
p2222
aV2015 in film
p2223
aVshu qi
p2224
aVfarrah fawcett
p2225
aVuniversal records
p2226
aVdelta force 2: the colombian connection
p2227
aVdelta machine
p2228
aVespnews
p2229
aVmy bloody valentine
p2230
aVwmur-tv
p2231
aVmamie gummer
p2232
aVpaul schrader
p2233
aVlaurence haddon
p2234
aV2019 in film
p2235
aVnew york stories
p2236
aVmob city
p2237
aVtrisol music group
p2238
aVbein sport
p2239
aVowl city
p2240
aVguns of the magnificent seven
p2241
aVoperation daybreak
p2242
aVpia miranda
p2243
aVmichael angarano
p2244
aVbig country
p2245
aVdirty south
p2246
aVarya babbar
p2247
aVgary allan
p2248
aVtrue romance
p2249
aVmeredith vieira
p2250
aVmagnum, p.i.
p2251
aVadam brooks
p2252
aVglynis barber
p2253
aVretro television network
p2254
aVtre cool
p2255
aVfalse idols
p2256
aV2006 in film
p2257
aVlet it all in
p2258
aVtreasure planet
p2259
aVstooshe
p2260
aVsilver dream racer
p2261
aVwashington, d.c.
p2262
aVsteven spielberg
p2263
aVwinona ryder
p2264
aVsomething wild
p2265
aVsometimes a great notion
p2266
aVjourney to the west: conquering the demons
p2267
aVkljb
p2268
aVenemy of the state
p2269
aVeva mendes
p2270
aVronit roy
p2271
aVdarius rucker
p2272
aVm. night shyamalan
p2273
aVdad's army
p2274
aVparamore
p2275
aVwkrg-tv
p2276
aVcicely tyson
p2277
aVprogressive metal
p2278
aVbirdy
p2279
aVspirityouall
p2280
aVjennifer aniston
p2281
aVlee \u005c"scratch\u005c" perry
p2282
aVbaroque pop
p2283
aVnorthern exposure
p2284
aVsportsouth
p2285
aVnoose for a lady
p2286
aVcul-de-sac
p2287
aVpaul sparks
p2288
aVi was monty's double
p2289
aVmajor lazer
p2290
aVcocorosie
p2291
aVbenedict cumberbatch
p2292
aVdarren criss
p2293
aVkevin durand
p2294
aVghostbusters ii
p2295
aV2010 in television
p2296
aVjustin bieber: believe
p2297
aVpaul feig
p2298
aVjosh singer
p2299
aVad\u005cu00e8le exarchopoulos
p2300
aVdavid bottrill
p2301
aVrod masterson
p2302
aVjules verne's rocket to the moon
p2303
aVguiding light
p2304
aVpete rose: hits & mrs.
p2305
aVlate night with jimmy fallon
p2306
aVal gore
p2307
aVcoheed and cambria
p2308
aVfuneral for a friend
p2309
aVktmf
p2310
aVsuhasini maniratnam
p2311
aVaya hirano
p2312
aVmiranda cosgrove
p2313
aVkris kross
p2314
aVdallas morning news
p2315
aVkmuv-lp
p2316
aVe!
p2317
aVrobert emms
p2318
aVjustice league unlimited
p2319
aVhey there, it's yogi bear!
p2320
aVi love you, alice b. toklas
p2321
aVfrank comstock
p2322
aVjack haley
p2323
aVthere's a girl in my soup
p2324
aVbreaking bad
p2325
aVhilary duff
p2326
aVeleven seven music
p2327
aVmargaret hamilton
p2328
aVglam punk
p2329
aVhilton a. green
p2330
aVget up!
p2331
aVs. epatha merkerson
p2332
aV20 million miles to earth
p2333
aVbathing beauty
p2334
aVpatricia arquette
p2335
aVyeh jawaani hai deewani
p2336
aVgriffin dunne
p2337
aVtemper temper
p2338
aVtoshio furukawa
p2339
aVfrasier
p2340
aVnicholas nickleby
p2341
aVthicker than water
p2342
aVcage of evil
p2343
aVamy acker
p2344
aVshow dog-universal music
p2345
aVred fang
p2346
aVjustin chadwick
p2347
aVblood on the arrow
p2348
aVdan fogelman
p2349
aVsimon beaufoy
p2350
aVvolume 3
p2351
aVwayne coyne
p2352
aVcamera obscura
p2353
aVmy little pony: equestria girls
p2354
aVkali hawk
p2355
aVtippi hedren
p2356
aVhugh laurie
p2357
aVa. c. lyles
p2358
aVamerican recordings
p2359
aVunstoppable momentum
p2360
aV2 chainz
p2361
aVmad about you
p2362
aVtom wilkinson
p2363
aVdarwin deez
p2364
aV2013 in hip hop music
p2365
aVdallas buyers club
p2366
aVpete kelly's blues
p2367
aVnexstar broadcasting group
p2368
aVtheatre of blood
p2369
aVneetu chandra
p2370
aVbriony mcroberts
p2371
aVinfestissumam
p2372
aVdoug jones
p2373
aVbelo corporation
p2374
aVmork & mindy
p2375
aVcrossing lines
p2376
aVnbc sunday night football
p2377
aVproblem child
p2378
aVmr. novak
p2379
aVbrooklyn nine-nine
p2380
aVsam raimi
p2381
aVleft hand of gemini
p2382
aVlonely hearts
p2383
aVrick astley
p2384
aVlaw & order: special victims unit
p2385
aVfrightened rabbit
p2386
aVmurphy's romance
p2387
aVhell baby
p2388
aVrca music group
p2389
aVlove and war
p2390
aVbertrand cantat
p2391
aVwuab
p2392
aVblack robe
p2393
aVdaring game
p2394
aVcableone
p2395
aVminnesota's 6th congressional district
p2396
aVreluctant heroes
p2397
aValice's adventures in wonderland
p2398
aVgoodbye, my fancy
p2399
aVurban music
p2400
aVshakespeare wallah
p2401
aVicarly
p2402
aVluis guzm\u005cu00e1n
p2403
aVken warwick
p2404
aVdavid lyon
p2405
aVlove thy neighbour
p2406
aVmagpie and the dandelion
p2407
aVsushant singh rajput
p2408
aVwzdx
p2409
aVashton kutcher
p2410
aVdave fridmann
p2411
aVhanky panky
p2412
aVindependence day
p2413
aVjim boyd
p2414
aVfive easy pieces
p2415
aVmatador records
p2416
aVmorgan taylor reid
p2417
aVplayhouse 90
p2418
aVwalter hill
p2419
aVunivision communications
p2420
aVmy super ex-girlfriend
p2421
aVsalaam remi
p2422
aVdavid henrie
p2423
aVdivorce american style
p2424
aVitv news
p2425
aVlady antebellum
p2426
aVlife with bonnie
p2427
aVhattiesburg, mississippi
p2428
aVmichael sheen
p2429
aVnewschannel 8
p2430
aVromeo is bleeding
p2431
aVbound for glory
p2432
aVdirty pretty things
p2433
aVannie hall
p2434
aVright thoughts, right words, right action
p2435
aVkristen wiig
p2436
aV65th primetime emmy awards
p2437
aVforever halloween
p2438
aVtreasure detectives
p2439
aVarjun rampal
p2440
aVqueens of the stone age
p2441
aVblack nativity
p2442
aVbeady eye
p2443
aVjudd lormand
p2444
aVmike tyson
p2445
aVpeter jurasik
p2446
aVrainer bock
p2447
aVbloodsports
p2448
aVkplc
p2449
aVflotsam and jetsam
p2450
aVa stranger among us
p2451
aVhaim saban
p2452
aVipecac recordings
p2453
aVcrimson tide
p2454
aVruth maleczech
p2455
aVchico, california
p2456
aVsomething to think about
p2457
aValternative dance
p2458
aVfantasy film
p2459
aVrock opera
p2460
aVeric roberson
p2461
aVmelissa mccarthy
p2462
aVjohn brascia
p2463
aVfox television stations group
p2464
aVlucas black
p2465
aVanushka sharma
p2466
aVamityville ii: the possession
p2467
aVrunning on empty
p2468
aVnatalie martinez
p2469
aVboise, idaho
p2470
aVhouse music
p2471
aVpenne hackforth-jones
p2472
aVmr. president
p2473
aVanimal rescue
p2474
aVl\u005cu00e9a seydoux
p2475
aVmarriage boot camp: bridezillas
p2476
aVmax minghella
p2477
aVpitbull
p2478
aVrooney mara
p2479
aVeric hudson
p2480
aVchato's land
p2481
aVeminem
p2482
aVfashionably late
p2483
aVdarrell hammond
p2484
aVsathyaraj
p2485
aVlin shaye
p2486
aVtable of years in film
p2487
aVsimon pegg
p2488
aVmasterchef junior
p2489
aVbottle rocket
p2490
aVdelorean
p2491
aVsaffron burrows
p2492
aVchristopher markus
p2493
aVi've gotta horse
p2494
aVme-tv
p2495
aVamc
p2496
aVdavid costabile
p2497
aVnick and norah's infinite playlist
p2498
aVpsy
p2499
aVmaryam zakaria
p2500
aVpost-grunge
p2501
aVkulr
p2502
aVbrad beyer
p2503
aVskycam
p2504
aVrich and famous
p2505
aVpike 18
p2506
aVfilm4 productions
p2507
aVvera farmiga
p2508
aVkevin shields
p2509
aVstones at the max
p2510
aVmalcolm barrett
p2511
aVpassione
p2512
aVkyle killen
p2513
aVkrtv
p2514
aVrelentless records
p2515
aVjenny mccarthy
p2516
aVbobby moynihan
p2517
aVstuart saves his family
p2518
aVstellan skarsgard
p2519
aVfearless records
p2520
aVbiographical film
p2521
aVnfl on cbs
p2522
aVbaltimore business journal
p2523
aVchris buck
p2524
aVone million years b.c.
p2525
aVmike elizondo
p2526
aVa view to a kill
p2527
aVjason perry
p2528
aVfletch lives
p2529
aVyang hyun-suk
p2530
aVfantasia barrino
p2531
aVkitten with a whip
p2532
aVsupreme court
p2533
aVwnys-tv
p2534
aV2013 major league baseball season
p2535
aVbarry tubb
p2536
aVdavid cross
p2537
aVopportunity knocks
p2538
aVsunshine corazon
p2539
aVescape from the planet of the apes
p2540
aVmonumental mysteries
p2541
aVtaissa farmiga
p2542
aVarnthor birgisson
p2543
aVrevenge of the nerds ii: nerds in paradise
p2544
aVparadise road
p2545
aVsleepy hollow
p2546
aVrussell brand
p2547
aVdrum and bass
p2548
aV2013 in american television
p2549
aVbelieve acoustic
p2550
aVsunday punch
p2551
aVstar!
p2552
aVlionsgate
p2553
aVshreveport, louisiana
p2554
aVed westwick
p2555
aVanalyze that
p2556
aVvir das
p2557
aVjason white
p2558
aVbreaking amish: brave new world
p2559
aVarctic monkeys
p2560
aVconnecticut department of energy and environmental protection
p2561
aVwhere the heaven are we
p2562
aVforbidden journey
p2563
aVmichelle williams
p2564
aVwefs
p2565
aVmeetings with remarkable men
p2566
aVplaying with fire
p2567
aVdoctor in distress
p2568
aVpicnic at hanging rock
p2569
aVlove, lust, faith and dreams
p2570
aVfernando garibay
p2571
aVget out alive with bear grylls
p2572
aVst. louis post-dispatch
p2573
aVthomas f. wilson
p2574
aVdream pop
p2575
aVjodie foster
p2576
aVjim henson
p2577
aVscreen gems
p2578
aVrico love
p2579
aVfast times at ridgemont high
p2580
aVstorm chasers
p2581
aVplay it cool
p2582
aVmike posner
p2583
aVwild animals
p2584
aVit's a disaster
p2585
aVemma watson
p2586
aVloud like love
p2587
aValan arkin
p2588
aVdr. goldfoot and the bikini machine
p2589
aVsascha paeth
p2590
aVblue horizon
p2591
aVyoungblood
p2592
aVwarner music australia
p2593
aVescape the fate
p2594
aVpias recordings
p2595
aVjosh boone
p2596
aVversaemerge
p2597
aVfrank bello
p2598
aVenter the ninja
p2599
aVgoodie mob
p2600
aVsaving mr. banks
p2601
aVjessica szohr
p2602
aVamerican idol
p2603
aVanaleigh tipton
p2604
aVklrt-tv
p2605
aVbedroom community
p2606
aVmax thieriot
p2607
aVhayden
p2608
aVmot\u005cu00f6rhead
p2609
aVkxas-tv
p2610
aVsally's irish rogue
p2611
aVin a tidal wave of mystery
p2612
aVry\u005cu016bzabur\u005cu014d \u005cu014ctomo
p2613
aVjeff wadlow
p2614
aVscott z. burns
p2615
aVpolice story
p2616
aVfire within
p2617
aVlock up
p2618
aVarabian adventure
p2619
aVwmaz-dt2
p2620
aVbig stan
p2621
aVmidnight run
p2622
aVjosh peck
p2623
aVcuba gooding jr.
p2624
aVjohn goodman
p2625
aVdesigning women
p2626
aVchristopher lee
p2627
aVpaul brittain
p2628
aVdear heart
p2629
aVorlando bloom
p2630
aVbounty hunters
p2631
aVtong liya
p2632
aVinsidious: chapter 2
p2633
aVtop of the heap
p2634
aVjane henson
p2635
aVmary steenburgen
p2636
aVpierre coffin
p2637
aVwalking with dinosaurs
p2638
aVdeafheaven
p2639
aVdanny boyle
p2640
aVfrenchman's farm
p2641
aVanneke van giersbergen
p2642
aVnoah georgeson
p2643
aVron perlman
p2644
aVblondie for victory
p2645
aVas long as they're happy
p2646
aVsky riders
p2647
aVjulianne hough
p2648
aVhis butler's sister
p2649
aVhouse calls
p2650
aVhorrorcore
p2651
aVparadise valley
p2652
aVcall out the marines
p2653
aVdef jam recordings
p2654
aVbonnie franklin
p2655
aVjon m. chu
p2656
aVarrest and trial
p2657
aVmisha b
p2658
aVphil allen
p2659
aVpatrice ch\u005cu00e9reau
p2660
aVkathryn hahn
p2661
aVsparrow records
p2662
aVreal husbands of hollywood
p2663
aVabdellatif kechiche
p2664
aVnew york daily news
p2665
aVtrip hop
p2666
aVcinema service
p2667
aVsub focus
p2668
aVmickey mouse
p2669
aVbryan forbes
p2670
aVanything in return
p2671
aVmlb network
p2672
aVkeri hilson
p2673
aVgucci mane
p2674
aVnew politics
p2675
aVcatamount broadcasting
p2676
aVin it to win it
p2677
aVcarry on abroad
p2678
aVcinco paul and ken daurio
p2679
aVrewind the film
p2680
aVmisha mansoor
p2681
aVdance gavin dance
p2682
aVramayya vasthavayya
p2683
aVlucas till
p2684
aVharold perrineau
p2685
aVthousands cheer
p2686
aVryan greene
p2687
aVr. kannan
p2688
aVduck, you sucker!
p2689
aVbollywood music
p2690
aVunited states senate
p2691
aVcopley square
p2692
aVghost on ghost
p2693
aVgoldfrapp
p2694
aVriot in cell block 11
p2695
aVsuperman in film
p2696
aVtom clancy
p2697
aVrun of the arrow
p2698
aVbaltasar korm\u005cu00e1kur
p2699
aV28th independent spirit awards
p2700
aVmichael imperioli
p2701
aV2022 in film
p2702
aVjohn c. reilly
p2703
aVsaving private ryan
p2704
aVpulkit samrat
p2705
aVkomo-tv
p2706
aVpajama party
p2707
aVyour pretty face is going to hell
p2708
aVfukrey
p2709
aVmarcia wallace
p2710
aVsyco music
p2711
aVoctopussy
p2712
aVnothing was the same
p2713
aVfx
p2714
aVcolton dixon
p2715
aVskip woods
p2716
aVcox media group
p2717
aVchris cooper
p2718
aVtravis
p2719
aVadweek
p2720
aVabsolute beginners
p2721
aVputney swope
p2722
aVhelen thomas
p2723
aViron will
p2724
aVmy name is my name
p2725
aVkirstie
p2726
aVj.k. simmons
p2727
aVstratovarius
p2728
aVkellan lutz
p2729
aVtony danza
p2730
aVhonky tonk freeway
p2731
aVgreen river ordinance
p2732
aVnolan gerard funk
p2733
aVburn notice
p2734
aVrazor & tie
p2735
aVjohnny reno
p2736
aVkelly mcgillis
p2737
aVi give it a year
p2738
aVrob lowe
p2739
aVcondoleezza rice
p2740
aVredfoo
p2741
aVjoe henry
p2742
aVmoises arias
p2743
aVajay devgan
p2744
aVwbz-tv
p2745
aVprachi desai
p2746
aVrock en espa\u005cu00f1ol
p2747
aVsony international
p2748
aVdraco rosa
p2749
aVdiscovery channel
p2750
aVstudio 57
p2751
aVpeter sarsgaard
p2752
aVpike 13
p2753
aVpike 12
p2754
aVpike 17
p2755
aVpike 16
p2756
aVpike 15
p2757
aVpike 14
p2758
aVred distribution
p2759
aVpike 19
p2760
aVjuliet rylance
p2761
aVsarah palin
p2762
aVso little time
p2763
aVborn of osiris
p2764
aVcapricorn one
p2765
aVcall me bwana
p2766
aVjack stokes
p2767
aVchapter 11 bankruptcy
p2768
aVmust love dogs
p2769
aVchris hayes
p2770
aVfor the love of mary
p2771
aVsylvester stallone
p2772
aVare you tougher than a boy scout?
p2773
aVarnold schwarzenegger
p2774
aVshirin guha
p2775
aVthey live
p2776
aVcatch me if you can
p2777
aVrun wild, run free
p2778
aVking-tv
p2779
aVprison break
p2780
aVgina gershon
p2781
aVaurangzeb
p2782
aVstand up guys
p2783
aVsony music entertainment
p2784
aVorchestral manoeuvres in the dark
p2785
aVmichael k. williams
p2786
aVdr. dre
p2787
aVtaran killam
p2788
aVlisa germano
p2789
aVjulieta venegas
p2790
aVwmbb-tv
p2791
aVnbc owned television stations
p2792
aVsarah hyland
p2793
aVdavid copperfield
p2794
aVrex trailer
p2795
aVwill ferrell
p2796
aVkevin pollak
p2797
aVphilippa boyens
p2798
aVgarage gold
p2799
aVharry dean stanton
p2800
aVronald \u005c"slim\u005c" williams
p2801
aVtoby mac
p2802
aVnational rifle association
p2803
aVmobile, alabama
p2804
aVlost boundaries
p2805
aVbiggest and baddest with niall mccann
p2806
aVjaimie alexander
p2807
aVjacob latimore
p2808
aVman man
p2809
aVbrendan gleeson
p2810
aVben kingsley
p2811
aVbow wow
p2812
aVfrank turner
p2813
aVelizabeth banks
p2814
aVking of kings
p2815
aVkevin costner
p2816
aVsatellite television
p2817
aVoff beat
p2818
aVorange is the new black
p2819
aVall in the family
p2820
aVfox news channel
p2821
aVsnakes on a plane
p2822
aVnever die alone
p2823
aVpentimento music company
p2824
aVwjps-lp
p2825
aVit started with eve
p2826
aVkffv
p2827
aVangus sampson
p2828
aVzal batmanglij
p2829
aVnaoko watanabe
p2830
aVtotally biased with w. kamau bell
p2831
aVcolin quinn
p2832
aVhotel cabana
p2833
aV2013 in classical music
p2834
aVgabriella cilmi
p2835
aVst. elsewhere
p2836
aVnetforce
p2837
aVvictor lundin
p2838
aVbefore midnight
p2839
aVcar lot rescue
p2840
aVadelaide kane
p2841
aVannette bening
p2842
aVshe & him
p2843
aVuprising records
p2844
aVclassixx
p2845
aVlittle red monkey
p2846
aVtadanobu asano
p2847
aVzach gilford
p2848
aVmediaite
p2849
aVdavey havok
p2850
aVacceptance speech
p2851
aVmichael bay
p2852
aVt-pain
p2853
aVmargot robbie
p2854
aVwilla holland
p2855
aVintermountain west communications company
p2856
aVtomorrow's harvest
p2857
aVdeaths in may 2013
p2858
aVhubbard broadcasting
p2859
aVhouston astros
p2860
aVthree into two won't go
p2861
aVdane cook
p2862
aVi am sam
p2863
aVfunk volume
p2864
aVchris braide
p2865
aValfre woodard
p2866
aVzack and miri make a porno
p2867
aVbrent musburger
p2868
aVwise-dt2
p2869
aVthis is... icona pop
p2870
aVjames vanderbilt
p2871
aVsnap shot
p2872
aVchris zane
p2873
aVdeepika padukone
p2874
aVback to school
p2875
aVlouise currie
p2876
aVsung kang
p2877
aVdennis the menace
p2878
aVdr. dog
p2879
aVmaurice
p2880
aVwhite noise: the light
p2881
aV1600 penn
p2882
aVone down, two to go
p2883
aVjim caviezel
p2884
aV200 motels
p2885
aVpain & gain
p2886
aVthat certain age
p2887
aVdramatico
p2888
aVtoot, whistle, plunk and boom
p2889
aVace hood
p2890
aVsam neill
p2891
aVstealing harvard
p2892
aVal kaprielian
p2893
aVandrea riseborough
p2894
aVdean jeffries
p2895
aVsillkey
p2896
aVsecret symphony
p2897
aVupload with shaquille o'neal
p2898
aVanother atmosphere
p2899
aVbert lahr
p2900
aVscott brown
p2901
aVjasper cameron
p2902
aVrichard attenborough
p2903
aVcharlie rowe
p2904
aVhouse of 1000 corpses
p2905
aVapple inc.
p2906
aVryan tedder
p2907
aVrepublican national committee
p2908
aVwhere the buffalo roam
p2909
aVian broudie
p2910
aVcut copy
p2911
aVamerican revolution 2
p2912
aV2013 in country music
p2913
aVjohn c. mcginley
p2914
aVchris lehane
p2915
aVjimmy fallon
p2916
aVdragon ball z: battle of gods
p2917
aVtyler posey
p2918
aVanna proclemer
p2919
aVlocal tv
p2920
aVyoung chop
p2921
aVimax
p2922
aVdavid boreanaz
p2923
aVcobie smulders
p2924
aVnick didia
p2925
aVkpse-lp
p2926
aVkarey kirkpatrick
p2927
aVksnb-tv
p2928
aVkivi-tv
p2929
aV\u005cu00c9ric judor
p2930
aVtropical music
p2931
aV2013 in south korean music
p2932
aVk\u005cu014dichi yamadera
p2933
aVred widow
p2934
aVwilliam h. ginsburg
p2935
aVdon jon
p2936
aVbuffy the vampire slayer
p2937
aVben schwartz
p2938
aVgarrett lewis
p2939
aVdavid boyd
p2940
aVjay mohr
p2941
aVdevil's cargo
p2942
aVentertainment tonight
p2943
aVnorthfork
p2944
aVjohn cho
p2945
aVmel gibson
p2946
aVbig brother
p2947
aVtelevision in the united states
p2948
aVrajesh khattar
p2949
aVedward james olmos
p2950
aVdev hynes
p2951
aVwho we are
p2952
aVdavid krumholtz
p2953
aVbobby cannavale
p2954
aVshock records
p2955
aVmoby
p2956
aValexis bledel
p2957
aVzoya akhtar
p2958
aVamerican raspberry
p2959
aVnot another teen movie
p2960
aVa-plus
p2961
aVbrett ratner
p2962
aVed harris
p2963
aVnotes from the underground
p2964
aVpublic affairs
p2965
aVsun valley serenade
p2966
aVdiego klattenhoff
p2967
aVtrinity broadcasting network
p2968
aVin the loop
p2969
aVsam riley
p2970
aVmadigan
p2971
aVphiladelphia inquirer
p2972
aVchad hayes
p2973
aVschurz communications
p2974
aVone life to live
p2975
aVpremji amaren
p2976
aVjess weixler
p2977
aVlatin pop
p2978
aVsybil christopher
p2979
aVfnac
p2980
aVjason bateman
p2981
aVrebecca breeds
p2982
aVunfd
p2983
aVgrace unplugged
p2984
aVspell-mageddon
p2985
aValain johannes
p2986
aV3cg records
p2987
aVwpch-tv
p2988
aVon oni pond
p2989
aVout of the shadow
p2990
aVbless this house
p2991
aVbuffalo, new york
p2992
aVrichard belzer
p2993
aV10 items or less
p2994
aVvoyage of the damned
p2995
aVlarger than life
p2996
aVmanoj bajpayee
p2997
aVdeborah kara unger
p2998
aV2013 in american music
p2999
aVdon was
p3000
aVif you wait
p3001
aVkarl urban
p3002
aVbad robot productions
p3003
aVryuhei kitamura
p3004
aVnelly
p3005
aVwho wants to be a millionaire
p3006
aVraj nidimoru and krishna d.k.
p3007
aVworking title films
p3008
aVsadashiv amrapurkar
p3009
aVmiss u much
p3010
aVnonso anozie
p3011
aVmiles teller
p3012
aVhee haw
p3013
aVjon bernthal
p3014
aVmath rock
p3015
aVfrankie and johnny
p3016
aVtommy flanagan
p3017
aVviola davis
p3018
aVvincent d'onofrio
p3019
aVkiller fish
p3020
aVlife after fame
p3021
aVzhao wei
p3022
aVpaulina rubio
p3023
aVtom cruise
p3024
aVblue sky studios
p3025
aVhellcats of the navy
p3026
aVlist of years in television
p3027
aVlee yo-won
p3028
aVkerry washington
p3029
aVlou reed
p3030
aVdevils of darkness
p3031
aVjitendra joshi
p3032
aVgo to blazes
p3033
aVjoy behar
p3034
aVsia furler
p3035
aVback 2 life
p3036
aVadhyayan suman
p3037
aVgoogle plus
p3038
aVjon brion
p3039
aVpaul northfield
p3040
aVwfff-tv
p3041
aVpen\u005cu00e9lope cruz
p3042
aVfood court wars
p3043
aVblues rock
p3044
aVwill & grace
p3045
aVup with chris hayes
p3046
aVbatman & mr. freeze: subzero
p3047
aVkorn
p3048
aVone hundred men and a girl
p3049
aVshane black
p3050
aVout of sight
p3051
aVneko case
p3052
aVjagjaguwar
p3053
aVlucille ball
p3054
aVfantastic four: rise of the silver surfer
p3055
aVyoutube
p3056
aVg\u005cu00e9nesis rodr\u005cu00edguez
p3057
aVjosh duhamel
p3058
aVa room with a view
p3059
aVdustin clare
p3060
aVkatu
p3061
aVeliza doolittle
p3062
aVbret michaels
p3063
aVdavid siegel
p3064
aVmagnet releasing
p3065
aVstephen dorff
p3066
aVbob ezrin
p3067
aVcontemporary christian music
p3068
aVcommunications corporation of america
p3069
aVcold turkey
p3070
aVmister quilp
p3071
aVhearts and knives
p3072
aVcameron diaz
p3073
aVpit of darkness
p3074
aVlife alert emergency response
p3075
aVdowntown records
p3076
aVfacebook
p3077
aVbehold a pale horse
p3078
aVpeter sohn
p3079
aVvictor victoria
p3080
aVmalcolm d. lee
p3081
aVfuneral boss
p3082
aVender's game
p3083
aVisaac hempstead-wright
p3084
aVjustin lin
p3085
aVchase carey
p3086
aVrescue my renovations
p3087
aVshock treatment
p3088
aV2013 bcs national championship game
p3089
aVlas vegas, nevada
p3090
aVfather brown
p3091
aVdon coscarelli
p3092
aVme, you & the music
p3093
aVhardcore superstar
p3094
aVquincy m.e.
p3095
aVfrankmusik
p3096
aVmatthew dickens
p3097
aVsigned and sealed in blood
p3098
aVryan dahle
p3099
aVben mendelsohn
p3100
aVmatthew beard
p3101
aVdavid otunga
p3102
aVceltic punk
p3103
aVclint lowery
p3104
aVanurag kashyap
p3105
aVidlewild records
p3106
aVliam boyle
p3107
aVeric sanicola
p3108
aVbomb the system
p3109
aVjason mamoa
p3110
aVbefore i sleep
p3111
aVclifton collins, jr.
p3112
aVbuckethead
p3113
aVsyracuse, new york
p3114
aVglam metal
p3115
aVwswb
p3116
aVunimagine
p3117
aVall the wrong reasons
p3118
aV{"parse":{"title":"2013 in american television","revid":579748470,"text":{"*":"<table class=\u005c"vertical-navbox nowraplinks\u005c" cellspacing=\u005c"5\u005c" cellpadding=\u005c"0\u005c" style=\u005c"float:right;clear:right;width:22.0em;margin:0 0 1.0em 1.0em;background:#f9f9f9;border:1px solid #aaa;padding:0.2em;border-spacing:0.4em 0;text-align:center;line-height:1.4em;font-size:88%;line-height:2em\u005c">\u005cn<tr>\u005cn<th class=\u005c"\u005c" style=\u005c"padding:0.1em;;;\u005c"><a href=\u005c"/wiki/list_of_years_in_television\u005c" title=\u005c"list of years in television\u005c">list of years in american television</a>:</th>\u005cn</tr>\u005cn<tr>\u005cn<td class=\u005c"hlist\u005c" style=\u005c"padding:0 0.1em 0.4em;;\u005c">\u005cn<ul>\u005cn<li><a href=\u005c"/wiki/2010_in_american_television\u005c" title=\u005c"2010 in american television\u005c">2010</a></li>\u005cn<li><a href=\u005c"/wiki/2011_in_american_television\u005c" title=\u005c"2011 in american television\u005c">2011</a></li>\u005cn<li><a href=\u005c"/wiki/2012_in_american_television\u005c" title=\u005c"2012 in american television\u005c">2012</a></li>\u005cn<li><span style=\u005c"font-family:sans-serif;font-size:125%;color:black;background-color:transparent;;\u005c"><strong class=\u005c"selflink\u005c">2013</strong></span></li>\u005cn<li><a href=\u005c"/wiki/2014_in_american_television\u005c" title=\u005c"2014 in american television\u005c">2014</a></li>\u005cn<li>2015</li>\u005cn<li>2016</li>\u005cn</ul>\u005cn</td>\u005cn</tr>\u005cn<tr>\u005cn<td class=\u005c"hlist\u005c" style=\u005c"padding:0 0.1em 0.4em;;\u005c">\u005cn<hr /></td>\u005cn</tr>\u005cn<tr>\u005cn<td class=\u005c"hlist\u005c" style=\u005c"padding:0 0.1em 0.4em;;\u005c"><i><a href=\u005c"/wiki/2012%e2%80%9313_united_states_network_television_schedule\u005c" title=\u005c"2012\u005cu201313 united states network television schedule\u005c">2012\u005cu201313 united states network television schedule</a></i></td>\u005cn</tr>\u005cn<tr>\u005cn<td class=\u005c"hlist\u005c" style=\u005c"padding:0 0.1em 0.4em;;\u005c"><i><a href=\u005c"/wiki/2013%e2%80%9314_united_states_network_television_schedule\u005c" title=\u005c"2013\u005cu201314 united states network television schedule\u005c">2013\u005cu201314 united states network television schedule</a></i></td>\u005cn</tr>\u005cn<tr>\u005cn<td class=\u005c"hlist\u005c" style=\u005c"padding:0 0.1em 0.4em;;\u005c"><i><a href=\u005c"/wiki/list_of_american_television_shows_currently_in_production\u005c" title=\u005c"list of american television shows currently in production\u005c">list of american television shows currently in production</a></i></td>\u005cn</tr>\u005cn</table>\u005cn<p>the following is a list of events affecting <a href=\u005c"/wiki/television_in_the_united_states\u005c" title=\u005c"television in the united states\u005c">american television</a> in 2013. events listed include television show debuts, finales, and cancellations; channel launches, closures, and rebrandings; stations changing or adding their network affiliations; and information about controversies and <a href=\u005c"/wiki/carriage_dispute\u005c" title=\u005c"carriage dispute\u005c">carriage disputes</a>.</p>\u005cn<div id=\u005c"toc\u005c" class=\u005c"toc\u005c">\u005cn<div id=\u005c"toctitle\u005c">\u005cn<h2>contents</h2>\u005cn</div>\u005cn<ul>\u005cn<li class=\u005c"toclevel-1 tocsection-1\u005c"><a href=\u005c"#events\u005c"><span class=\u005c"tocnumber\u005c">1</span> <span class=\u005c"toctext\u005c">events</span></a>\u005cn<ul>\u005cn<li class=\u005c"toclevel-2 tocsection-2\u005c"><a href=\u005c"#january\u005c"><span class=\u005c"tocnumber\u005c">1.1</span> <span class=\u005c"toctext\u005c">january</span></a></li>\u005cn<li class=\u005c"toclevel-2 tocsection-3\u005c"><a href=\u005c"#february\u005c"><span class=\u005c"tocnumber\u005c">1.2</span> <span class=\u005c"toctext\u005c">february</span></a></li>\u005cn<li class=\u005c"toclevel-2 tocsection-4\u005c"><a href=\u005c"#march\u005c"><span class=\u005c"tocnumber\u005c">1.3</span> <span class=\u005c"toctext\u005c">march</span></a></li>\u005cn<li class=\u005c"toclevel-2 tocsection-5\u005c"><a href=\u005c"#april\u005c"><span class=\u005c"tocnumber\u005c">1.4</span> <span class=\u005c"toctext\u005c">april</span></a></li>\u005cn<li class=\u005c"toclevel-2 tocsection-6\u005c"><a href=\u005c"#may\u005c"><span class=\u005c"tocnumber\u005c">1.5</span> <span class=\u005c"toctext\u005c">may</span></a></li>\u005cn<li class=\u005c"toclevel-2 tocsection-7\u005c"><a href=\u005c"#june\u005c"><span class=\u005c"tocnumber\u005c">1.6</span> <span class=\u005c"toctext\u005c">june</span></a></li>\u005cn<li class=\u005c"toclevel-2 tocsection-8\u005c"><a href=\u005c"#july\u005c"><span class=\u005c"tocnumber\u005c">1.7</span> <span class=\u005c"toctext\u005c">july</span></a></li>\u005cn<li class=\u005c"toclevel-2 tocsection-9\u005c"><a href=\u005c"#august\u005c"><span class=\u005c"tocnumber\u005c">1.8</span> <span class=\u005c"toctext\u005c">august</span></a></li>\u005cn<li class=\u005c"toclevel-2 tocsection-10\u005c"><a href=\u005c"#september\u005c"><span class=\u005c"tocnumber\u005c">1.9</span> <span class=\u005c"toctext\u005c">september</span></a></li>\u005cn<li class=\u005c"toclevel-2 tocsection-11\u005c"><a href=\u005c"#october\u005c"><span class=\u005c"tocnumber\u005c">1.10</span> <span class=\u005c"toctext\u005c">october</span></a></li>\u005cn<li class=\u005c"toclevel-2 tocsection-12\u005c"><a href=\u005c"#november\u005c"><span class=\u005c"tocnumber\u005c">1.11</span> <span class=\u005c"toctext\u005c">november</span></a></li>\u005cn</ul>\u005cn</li>\u005cn<li class=\u005c"toclevel-1 tocsection-13\u005c"><a href=\u005c"#upcoming_events\u005c"><span class=\u005c"tocnumber\u005c">2</span> <span class=\u005c"toctext\u005c">upcoming events</span></a>\u005cn<ul>\u005cn<li class=\u005c"toclevel-2 tocsection-14\u005c"><a href=\u005c"#november_2\u005c"><span class=\u005c"tocnumber\u005c">2.1</span> <span class=\u005c"toctext\u005c">november</span></a></li>\u005cn<li class=\u005c"toclevel-2 tocsection-15\u005c"><a href=\u005c"#december\u005c"><span class=\u005c"tocnumber\u005c">2.2</span> <span class=\u005c"toctext\u005c">december</span></a></li>\u005cn<li class=\u005c"toclevel-2 tocsection-16\u005c"><a href=\u005c"#date_tbd\u005c"><span class=\u005c"tocnumber\u005c">2.3</span> <span class=\u005c"toctext\u005c">date tbd</span></a></li>\u005cn</ul>\u005cn</li>\u005cn<li class=\u005c"toclevel-1 tocsection-17\u005c"><a href=\u005c"#television_programs\u005c"><span class=\u005c"tocnumber\u005c">3</span> <span class=\u005c"toctext\u005c">television programs</span></a>\u005cn<ul>\u005cn<li class=\u005c"toclevel-2 tocsection-18\u005c"><a href=\u005c"#programs_debuting_in_2013\u005c"><span class=\u005c"tocnumber\u005c">3.1</span> <span class=\u005c"toctext\u005c">programs debuting in 2013</span></a></li>\u005cn<li class=\u005c"toclevel-2 tocsection-19\u005c"><a href=\u005c"#programs_entering_syndication_in_2013\u005c"><span class=\u005c"tocnumber\u005c">3.2</span> <span class=\u005c"toctext\u005c">programs entering syndication in 2013</span></a></li>\u005cn<li class=\u005c"toclevel-2 tocsection-20\u005c"><a href=\u005c"#programs_changing_networks\u005c"><span class=\u005c"tocnumber\u005c">3.3</span> <span class=\u005c"toctext\u005c">programs changing networks</span></a></li>\u005cn<li class=\u005c"toclevel-2 tocsection-21\u005c"><a href=\u005c"#programs_returning_in_2013\u005c"><span class=\u005c"tocnumber\u005c">3.4</span> <span class=\u005c"toctext\u005c">programs returning in 2013</span></a></li>\u005cn<li class=\u005c"toclevel-2 tocsection-22\u005c"><a href=\u005c"#milestone_episodes_in_2013\u005c"><span class=\u005c"tocnumber\u005c">3.5</span> <span class=\u005c"toctext\u005c">milestone episodes in 2013</span></a></li>\u005cn<li class=\u005c"toclevel-2 tocsection-23\u005c"><a href=\u005c"#programs_ending_in_2013\u005c"><span class=\u005c"tocnumber\u005c">3.6</span> <span class=\u005c"toctext\u005c">programs ending in 2013</span></a></li>\u005cn<li class=\u005c"toclevel-2 tocsection-24\u005c"><a href=\u005c"#made-for-tv_movies_and_miniseries\u005c"><span class=\u005c"tocnumber\u005c">3.7</span> <span class=\u005c"toctext\u005c">made-for-tv movies and miniseries</span></a></li>\u005cn</ul>\u005cn</li>\u005cn<li class=\u005c"toclevel-1 tocsection-25\u005c"><a href=\u005c"#television_stations\u005c"><span class=\u005c"tocnumber\u005c">4</span> <span class=\u005c"toctext\u005c">television stations</span></a>\u005cn<ul>\u005cn<li class=\u005c"toclevel-2 tocsection-26\u005c"><a href=\u005c"#station_launches\u005c"><span class=\u005c"tocnumber\u005c">4.1</span> <span class=\u005c"toctext\u005c">station launches</span></a></li>\u005cn<li class=\u005c"toclevel-2 tocsection-27\u005c"><a href=\u005c"#stations_changing_network_affiliation\u005c"><span class=\u005c"tocnumber\u005c">4.2</span> <span class=\u005c"toctext\u005c">stations changing network affiliation</span></a></li>\u005cn<li class=\u005c"toclevel-2 tocsection-28\u005c"><a href=\u005c"#station_closures\u005c"><span class=\u005c"tocnumber\u005c">4.3</span> <span class=\u005c"toctext\u005c">station closures</span></a></li>\u005cn</ul>\u005cn</li>\u005cn<li class=\u005c"toclevel-1 tocsection-29\u005c"><a href=\u005c"#deaths\u005c"><span class=\u005c"tocnumber\u005c">5</span> <span class=\u005c"toctext\u005c">deaths</span></a></li>\u005cn<li class=\u005c"toclevel-1 tocsection-30\u005c"><a href=\u005c"#references\u005c"><span class=\u005c"tocnumber\u005c">6</span> <span class=\u005c"toctext\u005c">references</span></a></li>\u005cn</ul>\u005cn</div>\u005cn<h2><span class=\u005c"mw-headline\u005c" id=\u005c"events\u005c">events</span><span class=\u005c"mw-editsection\u005c"><span class=\u005c"mw-editsection-bracket\u005c">[</span><a href=\u005c"/w/index.php?title=2013_in_american_television&amp;action=edit&amp;section=1\u005c" title=\u005c"edit section: events\u005c">edit</a><span class=\u005c"mw-editsection-bracket\u005c">]</span></span></h2>\u005cn<h3><span class=\u005c"mw-headline\u005c" id=\u005c"january\u005c">january</span><span class=\u005c"mw-editsection\u005c"><span class=\u005c"mw-editsection-bracket\u005c">[</span><a href=\u005c"/w/index.php?title=2013_in_american_television&amp;action=edit&amp;section=2\u005c" title=\u005c"edit section: january\u005c">edit</a><span class=\u005c"mw-editsection-bracket\u005c">]</span></span></h3>\u005cn<table class=\u005c"wikitable\u005c">\u005cn<tr>\u005cn<th>date</th>\u005cn<th>event</th>\u005cn</tr>\u005cn<tr>\u005cn<td style=\u005c"text-align:center;\u005c" rowspan=\u005c"2\u005c"><b>2</b></td>\u005cn<td>the <a href=\u005c"/wiki/al_jazeera_media_network\u005c" title=\u005c"al jazeera media network\u005c">al jazeera media network</a> announces that they will acquire <a href=\u005c"/wiki/current_tv\u005c" title=\u005c"current tv\u005c">current tv</a> from an ownership group fronted by <a href=\u005c"/wiki/al_gore\u005c" title=\u005c"al gore\u005c">al gore</a> and <a href=\u005c"/wiki/joel_hyatt\u005c" title=\u005c"joel hyatt\u005c">joel hyatt</a>, with the intention to replace it with an <a href=\u005c"/wiki/al_jazeera_america\u005c" title=\u005c"al jazeera america\u005c">american version</a> of its <a href=\u005c"/wiki/al_jazeera_news\u005c" title=\u005c"al jazeera news\u005c" class=\u005c"mw-redirect\u005c">al jazeera news</a> network later in 2013.<sup id=\u005c"cite_ref-1\u005c" class=\u005c"reference\u005c"><a href=\u005c"#cite_note-1\u005c"><span>[</span>1<span>]</span></a></sup> the announcement becomes the catalyst in <a href=\u005c"/wiki/time_warner_cable\u005c" title=\u005c"time warner cable\u005c">time warner cable</a>'s decision to drop current tv from its systems, as twc plans to drop several channels due to low viewership and to contract renegotiations within the year.<sup id=\u005c"cite_ref-2\u005c" class=\u005c"reference\u005c"><a href=\u005c"#cite_note-2\u005c"><span>[</span>2<span>]</span></a></sup><sup id=\u005c"cite_ref-3\u005c" class=\u005c"reference\u005c"><a href=\u005c"#cite_note-3\u005c"><span>[</span>3<span>]</span></a></sup></td>\u005cn</tr>\u005cn<tr>\u005cn<td><a href=\u005c"/wiki/cox_communications\u005c" title=\u005c"cox communications\u005c">cox communications</a> removes eight stations owned by <a href=\u005c"/wiki/raycom_media\u005c" title=\u005c"raycom media\u005c">raycom media</a> in six markets due to a <a href=\u005c"/wiki/carriage_dispute\u005c" title=\u005c"carriage dispute\u005c">retransmission dispute</a>. the markets affected were <a href=\u005c"/wiki/woio\u005c" title=\u005c"woio\u005c">cleveland</a>
p3119
aVi eat your skin
p3120
aVmath metal
p3121
aVj. j. abrams
p3122
aVbruce willis
p3123
aVsan francisco
p3124
aVpiano music
p3125
aVswing music
p3126
aVit's a great life
p3127
aVwilliam shatner
p3128
aVa day to remember
p3129
aVuk garage
p3130
aVisland records
p3131
aVonce i was an eagle
p3132
aVstrange music
p3133
aVafraid of heights
p3134
aVrobin and the 7 hoods
p3135
aVlowrider
p3136
aVlitton entertainment
p3137
aVlester lewis
p3138
aVjohn moore
p3139
aVjai courtney
p3140
aVgeorge benson
p3141
aVcage the elephant
p3142
aVfocus features
p3143
aVmurder 3
p3144
aVindie pop
p3145
aVcall your friends
p3146
aVi want what i want
p3147
aVglee: the 3d concert movie
p3148
aVcommon courtesy
p3149
aVmichael d. moore
p3150
aVdrumsound & bassline smith
p3151
aVrock mafia
p3152
aVjohnny bravo
p3153
aVdaniel booko
p3154
aVfort worth, texas
p3155
aVcolin firth
p3156
aVvincent dowling
p3157
aVdavid roback
p3158
aVnaked and afraid
p3159
aVchris wedge
p3160
aVhawaii five-o
p3161
aVlee dewyze
p3162
aVbo bruce
p3163
aVcapitol broadcasting company
p3164
aVfox sports south
p3165
aVjacqueline fernandez
p3166
aVconfessions of a pop performer
p3167
aVleaves' eyes
p3168
aVtwenty one pilots
p3169
aVkatheryn winnick
p3170
aVplinko
p3171
aVmike dirnt
p3172
aVlaura linney
p3173
aVsanjay bhatia
p3174
aVstephen lang
p3175
aVchris badami
p3176
aVforest whitaker
p3177
aVreiko takashima
p3178
aVa.c.o.d.
p3179
aVabhishek chaubey
p3180
aVembeth davidtz
p3181
aVtaylor gang records
p3182
aVgwyneth paltrow
p3183
aVrichard leparmentier
p3184
aVcash dome
p3185
aVvenomous rat regeneration vendor
p3186
aVcory hardrict
p3187
aVlee thompson young
p3188
aVjackson, mississippi
p3189
aVmurder she wrote
p3190
aVcherry cherry boom boom
p3191
aVseabiscuit
p3192
aVcbs sports
p3193
aVfour days in november
p3194
aVhouston chronicle
p3195
aVlegal name
p3196
aVtony kgoroge
p3197
aVtodd phillips
p3198
aVleonardo dicaprio
p3199
aVguardian.co.uk
p3200
aVroanoke, virginia
p3201
aVjerry wonda
p3202
aVventure technologies group
p3203
aVlife, love & hope
p3204
aVstuff you should know
p3205
aVjonathan m. goldstein
p3206
aVpost-punk revival
p3207
aVjon bon jovi
p3208
aVjeremy mckinnon
p3209
aVrick ross
p3210
aVmiami, florida
p3211
aVsick puppies
p3212
aVredman
p3213
aVfamily affair
p3214
aVwicz
p3215
aVrudyard kipling's the jungle book
p3216
aVjay baruchel
p3217
aVpeter's friends
p3218
aVwild in the country
p3219
aVwatership down
p3220
aVjohn cusack
p3221
aVa portrait of the artist as a young man
p3222
aVdamian lewis
p3223
aVbipasha basu
p3224
aVboys life 2
p3225
aVdaisy miller
p3226
aVgun crazy
p3227
aVagnetha f\u005cu00e4ltskog
p3228
aVwalking my baby back home
p3229
aVrizzoli & isles
p3230
aVrobert duvall
p3231
aVwilliam joyce
p3232
aVadam-12
p3233
aVjon turteltaub
p3234
aVwjhl-tv
p3235
aVsebastian koch
p3236
aVdeath valley days
p3237
aVranveer singh
p3238
aVbachelor pad
p3239
aVhouse of wax
p3240
aVscooter braun
p3241
aVspies like us
p3242
aVanamanaguchi
p3243
aVcarnegie hall
p3244
aVself-released
p3245
aVlots of luck
p3246
aVdavid fincher
p3247
aVsister bliss
p3248
aVdaniel wu
p3249
aVoh! what a lovely war
p3250
aVsuper bowl xlvi
p3251
aVnew york
p3252
aVelodie yung
p3253
aVvickie eng
p3254
aVmountains of the moon
p3255
aVgeorge duke
p3256
aVnicolas cage
p3257
aVkenneth cranham
p3258
aVreggaeton
p3259
aVnew kids on the block
p3260
aVafm records
p3261
aVvidyullekha raman
p3262
aVras kass
p3263
aVthree smart girls
p3264
aVdallas roberts
p3265
aVcolin ford
p3266
aVgabriel iglesias
p3267
aVdeath metal
p3268
aVchennai express
p3269
aVabs-cbn
p3270
aVreverse compensation
p3271
aVrobocop
p3272
aVbroken english
p3273
aVwtvf
p3274
aVwhp-tv
p3275
aVextreme movie
p3276
aVrose byrne
p3277
aValona tal
p3278
aVcurse of the pink panther
p3279
aVjoe chiccarelli
p3280
aVbrad furman
p3281
aVgallipoli
p3282
aVprovident films
p3283
aVwilliam sadler
p3284
aVa glimpse inside the mind of charles swan iii
p3285
aVoctavia spencer
p3286
aVannette funicello
p3287
aVtinashe
p3288
aVroton
p3289
aVjonah bobo
p3290
aVharry fraud
p3291
aVhoward kurtz
p3292
aVmen of respect
p3293
aVstuart greer
p3294
aVsimon bird
p3295
aVtena desae
p3296
aVtamar braxton
p3297
aVnbc news at sunrise
p3298
aVcharlie musselwhite
p3299
aVtom skerritt
p3300
aVraymie
p3301
aVsecaucus, new jersey
p3302
aVsvetlana khodchenkova
p3303
aVadelaide clemens
p3304
aVrick rossovich
p3305
aVseann william scott
p3306
aVfamily ties
p3307
aVkevin dunn
p3308
aVemmelie de forest
p3309
aVgerard butler
p3310
aVcomedy hip hop
p3311
aVoutdoor channel
p3312
aVspring parade
p3313
aVrandom access memories
p3314
aVchain reaction
p3315
aVron weaver
p3316
aVjustin stanley
p3317
aVshady records
p3318
aVhoward benson
p3319
aVtodd robinson
p3320
aVdear god
p3321
aVhollywood homicide
p3322
aVbigg d
p3323
aVwhlt
p3324
aVi'll be yours
p3325
aVbaggage claim
p3326
aVanupam kher
p3327
aVowned-and-operated television stations in the united states
p3328
aVkimora: house of fab
p3329
aVsecondhand rapture
p3330
aVdev gill
p3331
aV2013 in architecture
p3332
aVjulia garner
p3333
aVsyfy
p3334
aVdrew pearce
p3335
aVkten
p3336
aVbuckwild
p3337
aVabbas-mustan
p3338
aVpanic! at the disco
p3339
aVstargate sg-1
p3340
aVali fazal
p3341
aVeiko hisamura
p3342
aVkeith carradine
p3343
aVstrong medicine
p3344
aVpatricia lovell
p3345
aVkidd kraddick
p3346
aVlittle giant
p3347
aVmichael zegen
p3348
aVjake johnson
p3349
aVone of us is the killer
p3350
aVsamuel goldwyn films
p3351
aVice cold gold
p3352
aVdenis villeneuve
p3353
aVmarta heflin
p3354
aVtopher grace
p3355
aVrichard linklater
p3356
aVwkbt-dt
p3357
aVrene russo
p3358
aVodd future records
p3359
aVannette kerr
p3360
aVnick robinson
p3361
aVroot sports northwest
p3362
aVlinden chiles
p3363
aVpaul epworth
p3364
aVstardust memories
p3365
aVdenzel washington
p3366
aVbrendan meyer
p3367
aVknsd
p3368
aVbad girls all-star battle
p3369
aVjane levy
p3370
aVtelemundo
p3371
aV24/seven
p3372
aVpatton oswalt
p3373
aVmighty joe young
p3374
aVcarter jenkins
p3375
aVfreebie and the bean
p3376
aVeran creevy
p3377
aVstuart blumberg
p3378
aVgreetings from tim buckley
p3379
aVpay or die
p3380
aVbill nighy
p3381
aVwtxf-tv
p3382
aV8 heads in a duffel bag
p3383
aVjames mangold
p3384
aVsheri moon zombie
p3385
aVjosh pais
p3386
aVhopsin
p3387
aVgypsy 83
p3388
aVmatch game
p3389
aVwnyo-tv
p3390
aVgangster squad
p3391
aV2012 in american television
p3392
aVdemi
p3393
aVkaren strassman
p3394
aVnorthlane
p3395
aVblade runner
p3396
aVprivate practice
p3397
aVterrence howard
p3398
aVikue \u005cu014ctani
p3399
aVgoodfellas
p3400
aVelden henson
p3401
aV2014 in american television
p3402
aVfierce creatures
p3403
aVplay dirty
p3404
aVshanghai surprise
p3405
aVdavid walliams
p3406
aVchristian bale
p3407
aVsatan in high heels
p3408
aVupstream color
p3409
aVpot cops
p3410
aVlou grant
p3411
aVjim cash
p3412
aVbitter & twisted
p3413
aVamanda crew
p3414
aVblack veil brides
p3415
aVkurt ballou
p3416
aVthomas lennon
p3417
aVhwang jung-min
p3418
aVjulie bowen
p3419
aVkill rock stars
p3420
aVoprah winfrey
p3421
aVrajesh sharma
p3422
aVbig top pee-wee
p3423
aVdealing with idiots
p3424
aVpicturehouse
p3425
aVsound of contact
p3426
aVtamahine
p3427
aVjames woods
p3428
aVvida
p3429
aVstephen street
p3430
aVom puri
p3431
aVclive standen
p3432
aVjimmy kimmel live!
p3433
aVnathan for you
p3434
aVbeyonc\u005cu00e9 knowles
p3435
aVjason sudeikis
p3436
aVa time for loving
p3437
aVtoni collette
p3438
aVemblem3
p3439
aVpsychedelic rock
p3440
aV2018 in film
p3441
aVhollywood dreams
p3442
aVsuper bowl xlvii
p3443
aVdeanna durbin
p3444
aVuniversal republic records
p3445
aVwwsi
p3446
aVon broadway
p3447
aVben rosenfield
p3448
aVshoegaze
p3449
aVadam ant
p3450
aVtwerking
p3451
aVwyzz-tv
p3452
aVwhere eagles dare
p3453
aVwnet
p3454
aVcentury media
p3455
aVrobert sheehan
p3456
aVamerican bandstand
p3457
aVkatt williams
p3458
aVtyler, the creator
p3459
aVdawn of the dead
p3460
aVjason segel
p3461
aV2013 in archaeology
p3462
aVgreen acres
p3463
aVidris elba
p3464
aVliberty media
p3465
aVbillings, montana
p3466
aVsacred bones records
p3467
aVaugust schellenberg
p3468
aVdenver nuggets
p3469
aVdavid morse
p3470
aVnate parker
p3471
aVmadhuri dixit
p3472
aVed koch
p3473
aVandy mccluskey
p3474
aVadult contemporary music
p3475
aVevil friends
p3476
aVnigel davenport
p3477
aVvalley of the dolls
p3478
aVnationwide series
p3479
aVbritta phillips
p3480
aVpaul bettany
p3481
aVlions gate entertainment
p3482
aVwilliam nicholson
p3483
aVode to billy joe
p3484
aVwacy-tv
p3485
aVnoah \u005c"40\u005c" shebib
p3486
aVdane dehaan
p3487
aVe-40
p3488
aVjamie bell
p3489
aVtears on tape
p3490
aVmac miller
p3491
aVtight spot
p3492
aVjahm\u005cu00e9ne douglas
p3493
aVmandate pictures
p3494
aVclimax!
p3495
aVrick huxley
p3496
aVdine alone records
p3497
aVwtwc-tv
p3498
aVjoanna lumley
p3499
aVchicago blackhawks
p3500
aVconan
p3501
aVwhiskey bay
p3502
aVwarner bros.
p3503
aVace fu records
p3504
aVhorror film
p3505
aVdavid croft
p3506
aVtrue north
p3507
aVeric andre
p3508
aVsouthern rock
p3509
aVleap of faith
p3510
aVjustin bieber
p3511
aVnelson franklin
p3512
aV2021 in film
p3513
aVaramis knight
p3514
aVterry lightfoot
p3515
aVato records
p3516
aVthey might be giants
p3517
aVyoung winston
p3518
aVty simpkins
p3519
aVchvrches
p3520
aVdreamworks pictures
p3521
aVonly the lonely
p3522
aVhiili hiilesmaa
p3523
aVall hands on deck
p3524
aVmonsters in the closet
p3525
aVcrash kings
p3526
aVheavy metal
p3527
aVslc punk!
p3528
aVassociated press
p3529
aVamerican broadcasting company
p3530
aVfor a few dollars more
p3531
aVmilo ventimiglia
p3532
aVhercules & love affair
p3533
aVget shorty
p3534
aVdc cupcakes: county fair
p3535
aViamamiwhoami
p3536
aVthree tough guys
p3537
aVdavid alan grier
p3538
aV2013 toronto international film festival
p3539
aVd'mile
p3540
aVdelain
p3541
aVspeed metal
p3542
aV2013 in canadian television
p3543
aVtalladega nights: the ballad of ricky bobby
p3544
aVpaul rogers
p3545
aVbob odenkirk
p3546
aVknow hope
p3547
aVeast coast hip hop
p3548
aVmichael petroni
p3549
aVmireille enos
p3550
aVvapor trails remixed
p3551
aVwmyt-tv
p3552
aVwhat happens in vegas
p3553
aVofficer down
p3554
aVreflections in a golden eye
p3555
aValex shaffer
p3556
aVflaming star
p3557
aVavicii
p3558
aVoscar and lucinda
p3559
aVariane labed
p3560
aVlil wayne
p3561
aVdisrupt with karen finney
p3562
aVsandra bullock
p3563
aVgood morning america
p3564
aVlist of years in film
p3565
aVchristina ricci
p3566
aVseraphim falls
p3567
aVklas \u005cu00c5hlund
p3568
aVsanta maria, california
p3569
aVtommy lee jones
p3570
aVcedar cove
p3571
aVwillie nile
p3572
aVcrown the empire
p3573
aVlaura dern
p3574
aVwill poulter
p3575
aVno blues
p3576
aVelton john
p3577
aVsirens and sailors
p3578
aVmax martini
p3579
aVcheri oteri
p3580
aVdouble jeopardy
p3581
aVhouse of cards
p3582
aVwill horton
p3583
aVshe's so lovely
p3584
aVsteptoe and son ride again
p3585
aVisland of the fishmen
p3586
aVwho's that girl
p3587
aVdiary of a mad housewife
p3588
aVfuel tv
p3589
aVcate blanchett
p3590
aVtake a girl like you
p3591
aVrobert luketic
p3592
aVshellback
p3593
aVedgar allan woolf
p3594
aVsan francisco international airport
p3595
aVlinda rae jurgens
p3596
aVgail kobe
p3597
aVblonde dynamite
p3598
aVcelebrity rehab with dr. drew
p3599
aVjudi dench
p3600
aVraja gosnell
p3601
aVliam james
p3602
aVdiff'rent strokes
p3603
aVelmer gantry
p3604
aVdrama film
p3605
aVbig time rush
p3606
aVcarry on
p3607
aVohio's 8th congressional district
p3608
aVlibertarian party
p3609
aVdavid lyons
p3610
aVkmtv-tv
p3611
aVregina hall
p3612
aVbonnie tyler
p3613
aVromance film
p3614
aVcharice pempengco
p3615
aVbombay talkie
p3616
aVmelinda fall
p3617
aVharrison ford
p3618
aV604 records
p3619
aVcoast to coast
p3620
aVtimeline of the presidency of john f. kennedy
p3621
aVhe's way more famous than you
p3622
aVdirectors guild of america
p3623
aVall about the andersons
p3624
aVdenison, texas
p3625
aVwallpaper.
p3626
aVjoe rogan questions everything
p3627
aVcormac mccarthy
p3628
aVjim kelly
p3629
aVeat the rich
p3630
aVacoustic music
p3631
aVeight on the lam
p3632
aVgia allemand
p3633
aVhouse of numbers
p3634
aVdavid spade
p3635
aVrosine delamare
p3636
aVdamon herriman
p3637
aVflip or flop
p3638
aVamanda peet
p3639
aVy\u005cu016bko minaguchi
p3640
aVinspectah deck
p3641
aVfragment of fear
p3642
aVben foster
p3643
aVaaron neville
p3644
aVroland emmerich
p3645
aVi dream of nene: the wedding
p3646
aVjayma mays
p3647
aVvocal music
p3648
aVbernard horsfall
p3649
aVtrue believers
p3650
aVwho gets the last laugh?
p3651
aVdavid r. ellis
p3652
aVtrophy wife
p3653
aVglitch music
p3654
aVwlax
p3655
aVnew order
p3656
aVbroadcast signal intrusion
p3657
aVda internz
p3658
aVjohn goodmanson
p3659
aVinterscope
p3660
aVfaith, hope y amor
p3661
aVkhsl-tv
p3662
aVblue thunder
p3663
aVblue ridge pbs
p3664
aVnight of the lepus
p3665
aVhotel sahara
p3666
aVsebastian ingrosso
p3667
aVcarey hayes
p3668
aVali baba and the forty thieves
p3669
aVnorman jones
p3670
aVunknown mortal orchestra
p3671
aVtwo lovers
p3672
aVleven rambin
p3673
aVsam shepard
p3674
aVhello herman
p3675
aVtv everywhere
p3676
aVsteven wilson
p3677
aVt.i.
p3678
aVdance-punk
p3679
aVstars dance
p3680
aVmartha higareda
p3681
aVlast vegas
p3682
aVbrett cullen
p3683
aVhikaru midorikawa
p3684
aVvijay
p3685
aVwhen dinosaurs ruled the earth
p3686
aVleslie bibb
p3687
aVnypd blue
p3688
aVpuja gupta
p3689
aVsanjay and craig
p3690
aVnightmare honeymoon
p3691
aVchris pine
p3692
aVgwen ifill
p3693
aVsuperman ii
p3694
aVtwistex
p3695
aVron sexsmith
p3696
aVmovie 43
p3697
aVmarianne jean-baptiste
p3698
aVlove me or leave me
p3699
aVbird on a wire
p3700
aVmerge records
p3701
aVstars earn stripes
p3702
aVpaul bhattacharjee
p3703
aVlissie
p3704
aVdonald symington
p3705
aVphilomena
p3706
aVenglish rain
p3707
aV2012 baltimore ravens season
p3708
aVjeff pope
p3709
aVbatman: the animated series
p3710
aVdeaths in february 2013
p3711
aVpretty lights
p3712
aVemma stone
p3713
aVkevin churko
p3714
aVat the movies
p3715
aVadrian pasdar
p3716
aVoleg taktarov
p3717
aVethan suplee
p3718
aVanna chancellor
p3719
aVwhere the lilies bloom
p3720
aVnorth american soccer league
p3721
aVtwo flags west
p3722
aVfox broadcasting company
p3723
aVtucker martine
p3724
aVbilly bob thornton
p3725
aVmillenials
p3726
aVvince offer
p3727
aVsan diego
p3728
aVking of the nerds
p3729
aVdaniel kash
p3730
aVpillars of the sky
p3731
aVcristin milioti
p3732
aVanother stakeout
p3733
aVtiger eyes
p3734
aVmasters of sex
p3735
aVjames deen
p3736
aVwander over yonder
p3737
aVweta-tv
p3738
aVodeya rush
p3739
aVfamke janssen
p3740
aVdr. dolittle 2
p3741
aVelise avellan
p3742
aVjohn brotherton
p3743
aVwavves
p3744
aVjennifer garner
p3745
aVjean stapleton
p3746
aVelias koteas
p3747
aVsuper fun night
p3748
aVstephen king
p3749
aVmary reilly
p3750
aVjason and the argonauts
p3751
aVcharlie sheen
p3752
aVr. gilbert clayton
p3753
aVbig battle of egos
p3754
aVone from the heart
p3755
aVashleigh ball
p3756
aValkaline trio
p3757
aVwtlh
p3758
aVfind me my man
p3759
aVtony visconti
p3760
aVreturn of the texan
p3761
aVwtlf
p3762
aVforever endeavour
p3763
aVjuicy j
p3764
aVindicud
p3765
aVsteven bauer
p3766
aVtvgn
p3767
aVchris mulkey
p3768
aVdonkey punch the night
p3769
aVolbermann
p3770
aVsundance channel
p3771
aVhelloween
p3772
aVhelen hanft
p3773
aVhot to trot
p3774
aVno love for johnnie
p3775
aVdanny mcbride
p3776
aVatul kulkarni
p3777
aVlive! with kelly and michael
p3778
aVgiovanni ribisi
p3779
aVdavid schwimmer
p3780
aVjacquire king
p3781
aVrebecca hall
p3782
aVaimee teegarden
p3783
aVjohn legend
p3784
aVnicole beharie
p3785
aVjustin zackham
p3786
aVrichard griffiths
p3787
aVapril in paris
p3788
aVtony soprano
p3789
aVassignment k
p3790
aVsnoop dogg
p3791
aVjake abel
p3792
aVvera cruz
p3793
aVrobert pulcini
p3794
aVderry, new hampshire
p3795
aVhispanic and latino americans
p3796
aVz.p.g.
p3797
aVfx network
p3798
aVphoenix, arizona
p3799
aVartery recordings
p3800
aV2013 in japanese music
p3801
aVsong hye-kyo
p3802
aVadam kolkin
p3803
aVcrunkcore
p3804
aVlaw of the plainsman
p3805
aVa chorus of disapproval
p3806
aVimran khan
p3807
aVeyrth, wynd and fyre
p3808
aVehren mcghehey
p3809
aVa summer place
p3810
aVshy people
p3811
aVemma thompson
p3812
aVjessica sanchez
p3813
aVashley tisdale
p3814
aVcorey johnson
p3815
aVchristopher mcquarrie
p3816
aVtessh\u005cu014d genda
p3817
aVhow to live with your parents
p3818
aVwedding crashers
p3819
aVwbgh-ca
p3820
aVted elliott
p3821
aVprimetime emmy award for outstanding directing for a drama series
p3822
aVgomer pyle, u.s.m.c.
p3823
aVwaze-tv
p3824
aVlists of box office number-one films
p3825
aVmagnolia pictures
p3826
aVphesto
p3827
aVtrivikram srinivas
p3828
aVblame it on the bellboy
p3829
aValison brie
p3830
aVkerri kenney-silver
p3831
aVwhistle down the wind
p3832
aVjuno temple
p3833
aVclassical crossover
p3834
aVjowell & randy
p3835
aVt-bone burnett
p3836
aVwill yun lee
p3837
aVnile rodgers
p3838
aVrestless natives
p3839
aValden ehrenreich
p3840
aVeros international
p3841
aVre mi fa/louder than life
p3842
aVwen zhang
p3843
aVin the soup
p3844
aVal jazeera america
p3845
aVsoul train
p3846
aVskirts ahoy!
p3847
aVfederal communications commission
p3848
aVlily tomlin
p3849
aVus alone
p3850
aVi killed wild bill hickok
p3851
aV1964 u.s. open
p3852
aVelisabeth hasselbeck
p3853
aVchelcie ross
p3854
aVhardball with chris matthews
p3855
aVbosnian rainbows
p3856
aVmda show of strength
p3857
aVkfox-tv
p3858
aVblack dog barking
p3859
aVpick up your head
p3860
aVjazz fusion
p3861
aVhang 'em high
p3862
aVciara
p3863
aV2013 in philosophy
p3864
aValpena, michigan
p3865
aVdavid castell
p3866
aVjay leno
p3867
aVbrie larson
p3868
aVeasy listening
p3869
aVbroadcasting & cable
p3870
aVpeter jackson
p3871
aVnbcuniversal cable
p3872
aVmia wasikowska
p3873
aVliving out loud
p3874
aVteennick
p3875
aVpeter michael goetz
p3876
aVchang chen
p3877
aVvirginia gibson
p3878
aVrock music
p3879
aVchristopher eccleston
p3880
aVgeoffrey rush
p3881
aVserpent of the nile
p3882
aVinterscope records
p3883
aVtania raymonde
p3884
aVlaura stevenson
p3885
aVwupv
p3886
aVpsychomania
p3887
aVvishakha singh
p3888
aVgarth richardson
p3889
aVmeet the press
p3890
aVjayne mansfield's car
p3891
aVwwe
p3892
aVmillhouse
p3893
aVwendell pierce
p3894
aVseasons of your day
p3895
aVbrooklyn da
p3896
aVsof\u005cu00eda vergara
p3897
aVreprise records
p3898
aVaamir khan
p3899
aValexis dziena
p3900
aVmonkeywrench records
p3901
aVlasse hallstr\u005cu00f6m
p3902
aVcrime film
p3903
aVmystery submarine
p3904
aVrick yune
p3905
aVlate edition with wolf blitzer
p3906
aVruth prawer jhabvala
p3907
aVglynn turman
p3908
aVarts & crafts productions
p3909
aVpitchfork.com
p3910
aVmac miller and the most dope family
p3911
aVbet on your baby
p3912
aVspencer krug
p3913
aVflash gordon
p3914
aVjami gertz
p3915
aVbrad garrett
p3916
aVmartin klebba
p3917
aVsister act 2: back in the habit
p3918
aVhalloween h20: 20 years later
p3919
aVandrea libman
p3920
aVkate walsh
p3921
aVksee
p3922
aVmurder most foul
p3923
aVskylar grey
p3924
aVcomcast
p3925
aVmediabistro.com
p3926
aVdan muckala
p3927
aVjeremy allen white
p3928
aVgrant balfour
p3929
aVnational lampoon's van wilder
p3930
aVkristin scott thomas
p3931
aVrick rubin
p3932
aVana gasteyer
p3933
aVon the road
p3934
aVpaul o'neill
p3935
aVamy poehler
p3936
aVagainst all odds
p3937
aVu.s. open
p3938
aVice cold in alex
p3939
aVyear of the dragon
p3940
aVcnn money
p3941
aVwarner bros. records
p3942
aVrajiv pillai
p3943
aVjack's back
p3944
aVkptm
p3945
aVtrailer park boys: countdown to liquor day
p3946
aVwmmp
p3947
aVlove letters
p3948
aVk. k. raina
p3949
aVfamily tools
p3950
aVrhythm and blues
p3951
aVcowles publishing company
p3952
aVmachineries of joy
p3953
aVsixx:a.m.
p3954
aVcry of battle
p3955
aVunderground hip hop
p3956
aVnutcracker: the motion picture
p3957
aVed gass-donnelly
p3958
aVagnes monica
p3959
aVjimmy eat world
p3960
aVafter earth
p3961
aVdespicable me 2
p3962
aVbattle beneath the earth
p3963
aVmary birdsong
p3964
aVdivorcing jack
p3965
aVcbs television distribution
p3966
aVakeelah and the bee
p3967
aVtelefon
p3968
aVf. murray abraham
p3969
aVcarson daly
p3970
aVtexas carnival
p3971
aVkristen schaal
p3972
aVwayne knight
p3973
aVmichael winner
p3974
aVbenefit concert
p3975
aVmy pal gus
p3976
aVklay hall
p3977
aVsci-fi
p3978
aV19 recordings
p3979
aVmike crossey
p3980
aVjonathan winters
p3981
aVshailene woodley
p3982
aVpalma violets
p3983
aVjoseph mazzello
p3984
aVlynn shelton
p3985
aVpat proft
p3986
aVfirst knight
p3987
aVrichard collins
p3988
aVcompetition law
p3989
aVjoel coen
p3990
aVget crazy
p3991
aVking ralph
p3992
aVtom hiddleston
p3993
aValison goldfrapp
p3994
aVwhat would ryan lochte do?
p3995
aVunited states presidential election, 2012
p3996
aVjulia stiles
p3997
aVrafi gavron
p3998
aVfreakshow
p3999
aVindie rock
p4000
aVsurveen chawla
p4001
aVluke evans
p4002
aVemily watson
p4003
aVunivision
p4004
aVtrilogy of terror
p4005
aVdemocratic party of the united states
p4006
aVdon't forget who you are
p4007
aVkion-tv
p4008
aVhbo
p4009
aVconan stevens
p4010
aVwgn america
p4011
aV100 bloody acres
p4012
aVaaron taylor-johnson
p4013
aVwhere does this door go
p4014
aVarjen lucassen
p4015
aVrobert downey, jr.
p4016
aVdan scanlon
p4017
aVwonderful, glorious
p4018
aVchris sanders
p4019
aVheather doerksen
p4020
aVbubblegoth
p4021
aVjustin haythe
p4022
aVyellow submarine
p4023
aVemmy rossum
p4024
aVsubmarine x-1
p4025
aVjohn finn
p4026
aVmichael winterbottom
p4027
aVduck records
p4028
aVnews corporation
p4029
aVwhite christmas
p4030
aVinside amy schumer
p4031
aVcaroline records
p4032
aVmeesha shafi
p4033
aVvera filatova
p4034
aVjennifer lopez
p4035
aVfolktronica
p4036
aVbreaking glass
p4037
aVhe said, she said
p4038
aVcharlemagne: the omens of death
p4039
aVjohn getz
p4040
aVvennela kishore
p4041
aVselena gomez
p4042
aVlou myers
p4043
aVvince vaughn
p4044
aVgeneration y
p4045
aVtoby gad
p4046
aVlorde
p4047
aVicon for hire
p4048
aVjohn leguizamo
p4049
aVtim mcgraw
p4050
aVjosh hutcherson
p4051
aVstriking distance
p4052
aVshow luo
p4053
aVtwo for the seesaw
p4054
aVgeorge clooney
p4055
aVman of steel
p4056
aVobama administration
p4057
aVstudent bodies
p4058
aVtrans-siberian orchestra
p4059
aVsupervixens
p4060
aVimran hasnee
p4061
aVj.c. chandor
p4062
aVsands of the kalahari
p4063
aVnathan lane
p4064
aVmichael stuhlbarg
p4065
aVbilly magnussen
p4066
aVbill paxton
p4067
aVedith bunker
p4068
aVsupermarket superstar
p4069
aVwendell & vinnie
p4070
aVugly noise
p4071
aVabbott and costello meet captain kidd
p4072
aVrapid fire
p4073
aVklute
p4074
aVyes, it's true
p4075
aVsam claflin
p4076
aVcaptain phillips
p4077
aV2014 in film
p4078
aVkodi smit-mcphee
p4079
aVdante harper
p4080
aVjim james
p4081
aVjay j. armes
p4082
aVtaylor lautner
p4083
aVmurder on the orient express
p4084
aVhotel for dogs
p4085
aVdays of thunder
p4086
aVnosher powell
p4087
aVmindy mccready
p4088
aVmsnbc
p4089
aVjay park
p4090
aVpedestrian verse
p4091
aVsteve carr
p4092
aVian mcshane
p4093
aVvincent pastore
p4094
aVkillswitch engage
p4095
aVjay paulson
p4096
aVlondon grammar
p4097
aVeric clapton
p4098
aVteen pop
p4099
aVkatherine lanasa
p4100
aValan taylor
p4101
aVbarry pepper
p4102
aVespnu
p4103
aVwalt disney pictures
p4104
aVrace 2
p4105
aVdreamboat
p4106
aVcalamity jane
p4107
aVsteve osborne
p4108
aVdean parisot
p4109
aVescape from planet earth
p4110
aVdavid duchovny
p4111
aVkcns
p4112
aVrila fukushima
p4113
aVmary-louise parker
p4114
aVdavid thewlis
p4115
aVgavin hood
p4116
aVzomby
p4117
aVnapalm records
p4118
aVsanta monica, california
p4119
aVisabelle fuhrman
p4120
aVparticipant media
p4121
aVajay
p4122
aVeriko hatsune
p4123
aVfood network
p4124
aVside effects of you
p4125
aVguinness world records gone wild
p4126
aVdheer charan srivastav
p4127
aVpaul bearer
p4128
aVdevious maids
p4129
aVlester holt
p4130
aVlure of the wilderness
p4131
aVwilliam harrison
p4132
aVwbpn-lp
p4133
aVbruce campbell
p4134
aVsoundz
p4135
aVabigail spencer
p4136
aVlousy with sylvianbriar
p4137
aVbullet to the head
p4138
aVmartin terefe
p4139
aV2013 in irish television
p4140
aVsebasti\u005cu00e1n cordero
p4141
aVnavy wife
p4142
aVhail to the king
p4143
aVnick cave and the bad seeds
p4144
aVarthur mcarthur
p4145
aVcookie jar tv
p4146
aVblazing saddles
p4147
aVrobert forster
p4148
aVryan's hope
p4149
aVbernadette lafont
p4150
aVbobby mcferrin
p4151
aVpicture bride
p4152
aVnightly business report
p4153
aVliev schreiber
p4154
aVbeau burchell
p4155
aVblessthefall
p4156
aVbelle's
p4157
aVrabbit test
p4158
aVimogen poots
p4159
aVjohn david wilson
p4160
aVarmed and dangerous
p4161
aVlava records
p4162
aVhesitation marks
p4163
aVgillian jacobs
p4164
aVheather morris
p4165
aVnew rushmore radio, inc.
p4166
aVsol madrid
p4167
aVweb television
p4168
aVrachel bilson
p4169
aVjim broadbent
p4170
aVmichael parks
p4171
aVradha mitchell
p4172
aViamsound records
p4173
aVcurrent tv
p4174
aV21st century fox
p4175
aVcharles s. dutton
p4176
aVj.h. wyman
p4177
aVentertainment one
p4178
aVwill.i.am music group
p4179
aVlee eisenberg
p4180
aVup in central park
p4181
aVone equity partners
p4182
aVariel rechtshaid
p4183
aVneil jordan
p4184
aVallie deberry
p4185
aVdexter fletcher
p4186
aVa24 films
p4187
aVsounds of mass production
p4188
aVfilmdistrict
p4189
aVbob thompson
p4190
aVget to know your rabbit
p4191
aVdaniel algrant
p4192
aVstreamline records
p4193
aVdennis quaid
p4194
aVlive at luna park
p4195
aVdying young
p4196
aVwith love
p4197
aVwsyt-tv
p4198
aVsalma hayek
p4199
aVsteve conrad
p4200
aVscoot mcnairy
p4201
aVduck dynasty
p4202
aVhiromi tsuru
p4203
aVjohn congleton
p4204
aVtony grisoni
p4205
aVthose magnificent men in their flying machines
p4206
aVnick offerman
p4207
aVmurphy brown
p4208
aVshinbone alley
p4209
aVdomo records
p4210
aVmy lover my son
p4211
aVjoe swanberg
p4212
aVi am a camera
p4213
aVwrbj-tv
p4214
aVghost story
p4215
aVbatman begins
p4216
aVguarding tess
p4217
aVprivate benjamin
p4218
aVgilligan's island
p4219
aVpatriot games
p4220
aVdayo okeniyi
p4221
aVpsychedelic music
p4222
aVone day at a time
p4223
aVgirl of the night
p4224
aVking diamond
p4225
aVunited states navy seals
p4226
aVyuliya snigir
p4227
aVhollow bodies
p4228
aVdon nelson
p4229
aVjeremy geidt
p4230
aVpappas telecasting
p4231
aVyoung broadcasting
p4232
aVpbr&b
p4233
aVevan daugherty
p4234
aVbook of shadows: blair witch 2
p4235
aVzack snyder
p4236
aVdamn yankees
p4237
aVprudence and the pill
p4238
aVnatascha mcelhone
p4239
aVgeorge lopez
p4240
aVguns at batasi
p4241
aVdoyle bramhall ii
p4242
aVzhang ziyi
p4243
aVadithya
p4244
aVlegend of the werewolf
p4245
aVkevin hart
p4246
aVkiller: a journal of murder
p4247
aVtyga
p4248
aVmuriel's wedding
p4249
aVandrew dice clay
p4250
aV2013 in art
p4251
aVbombay talkies
p4252
aVsara montiel
p4253
aVburlington, vermont
p4254
aVrob allyn
p4255
aVgary david goldberg
p4256
aVamy adams
p4257
aVmoombahton
p4258
aVone foot in heaven
p4259
aVbirmingham, alabama
p4260
aVbridezillas
p4261
aVwhose life is it anyway?
p4262
aVtop gun
p4263
aVnot fade away
p4264
aVmosharraf karim
p4265
aVnick canon
p4266
aVdead man down
p4267
aVpatrick heusinger
p4268
aVwaiting for the moon
p4269
aVgo tell the spartans
p4270
aVhigh heels and low lifes
p4271
aVmasaharu sat\u005cu014d
p4272
aVsouthern hip hop
p4273
aVwillie & phil
p4274
aVjava heat
p4275
aVattack of the show!
p4276
aVpepe
p4277
aVbilly the kid's gun justice
p4278
aVpatrick wilson
p4279
aVdog and beth: on the hunt
p4280
aVwelcome to myrtle manor
p4281
aVreindeer games
p4282
aVjames ponsoldt
p4283
aVa thief in the night
p4284
aVpost-industrial music
p4285
aVkazaky
p4286
aVcory monteith
p4287
aVfox searchlight
p4288
aVcassadee pope
p4289
aVespn 3d
p4290
aVbestbuy.com
p4291
aVbad boy records
p4292
aVdear miss lonelyhearts
p4293
aVjim lehrer
p4294
aVkunihiko yuyama
p4295
aVgwar
p4296
aVtwo for the road
p4297
aVdavid morrissey
p4298
aVchris addison
p4299
aVbrian dannelly
p4300
aVmanu bennett
p4301
aVsuperman iii
p4302
aVmissoula, montana
p4303
aVwait till your father gets home
p4304
aVstage beauty
p4305
aVxl records
p4306
aVraima sen
p4307
aVanand tiwari
p4308
aVinside combat rescue
p4309
aVprospect park
p4310
aVorianthi
p4311
aVfireball 500
p4312
aVamanda brooks
p4313
aVinappropriate comedy
p4314
aVkevin rankin
p4315
aVrishi kapoor
p4316
aVbitter rivals
p4317
aVhome improvement
p4318
aVmisty upham
p4319
aVportugal. the man
p4320
aVdown by law
p4321
aVmotorcity
p4322
aVjames frain
p4323
aVguy pearce
p4324
aVmichael monroe
p4325
aVabhishek kapoor
p4326
aVgloria estefan
p4327
aVwhbf-tv
p4328
aVpocatello, idaho
p4329
aVjean sincere
p4330
aVinuko inuyama
p4331
aVsons of satan
p4332
aVjohnny got his gun
p4333
aVkyle xy
p4334
aVkelis
p4335
aVfalling in reverse
p4336
aVakon
p4337
aVbig beat records
p4338
aVryan reynolds
p4339
aVsteven universe
p4340
aVsteven soderbergh
p4341
aVhip-hop music
p4342
aVfolk music
p4343
aVcharlie bauerfeind
p4344
aVreal genius
p4345
aVfay kanin
p4346
aVdan monti
p4347
aVmiss sadie thompson
p4348
aVcagney & lacey
p4349
aVzap2it
p4350
aV2010 in home video
p4351
aVethan coen
p4352
aVvh1
p4353
aVnashville, tennessee
p4354
aVbalto
p4355
aVjames blake
p4356
aVexcel entertainment
p4357
aVaxs tv
p4358
aVchristian rich
p4359
aVmichael jibson
p4360
aVjonathan chase
p4361
aVcarry on... up the khyber
p4362
aVdisney xd
p4363
aVgil norton
p4364
aVa better tomorrow
p4365
aVluken communications
p4366
aVbanacek
p4367
aV2013 oklahoma sooners football team
p4368
aVscott alexander
p4369
aVreport to the commissioner
p4370
aVnight of the eagle
p4371
aVlydia bailey
p4372
aVregis philbin
p4373
aVantonina armato
p4374
aVfirst love
p4375
aVterrence malick
p4376
aVno sex please, we're british
p4377
aVtony scott
p4378
aVyang lan
p4379
aV8:18
p4380
aVwrgx-ld
p4381
aVwutv
p4382
aVmr. collipark
p4383
aVbrad lesley
p4384
aVwade barrett
p4385
aVantonia thomas
p4386
aVaditi rao hydari
p4387
aVscott tenorman must die
p4388
aValfred molina
p4389
aVbaz luhrmann
p4390
aVkmir-tv
p4391
aVlove and honor
p4392
aVstreet king immortal
p4393
aVpatrick st. esprit
p4394
aVsecond generation wayans
p4395
aVchristina milian
p4396
aVfrom the hip
p4397
aVtouchy feely
p4398
aVtelevision film
p4399
aVdiahann carroll
p4400
aVblackbeard's ghost
p4401
aVmy shame is true
p4402
aVstargate
p4403
aVconvicts 4
p4404
aVicona pop
p4405
aVdon't go near the water
p4406
aVpittsfield, massachusetts
p4407
aVjoel murray
p4408
aVamy ryan
p4409
aVsusan fitzgerald
p4410
aVneeraj pandey
p4411
aVanalog television
p4412
aVjohn mayer
p4413
aVwpgx
p4414
aV2013 in music
p4415
aValternative music
p4416
aVorphan black
p4417
aVarmstrong circle theatre
p4418
aVborn again
p4419
aVinternational velvet
p4420
aVamanda seyfried
p4421
aVaml ameen
p4422
aV2012 in film
p4423
aVa circle of deception
p4424
aVjackie brown
p4425
aVdj kemo
p4426
aVanthology film
p4427
aVmegaforce
p4428
aV2013 boston marathon
p4429
aVjohn buffalo mailer
p4430
aVsire records
p4431
aVsarah paulson
p4432
aVtim palmer
p4433
aVdamien: omen ii
p4434
aVkcoy
p4435
aVivan velez
p4436
aVkiss of the damned
p4437
aVmartin johnson
p4438
aVric menello
p4439
aVblue note records
p4440
aVfrench house
p4441
aVwichita recordings
p4442
aVbounce tv
p4443
aVted hutt
p4444
aVrobot combat league
p4445
aVcold case
p4446
aVwnmu
p4447
aVcontemporary r&b
p4448
aVchristopher porco
p4449
aVmatt greenhalgh
p4450
aVviacom 18 motion pictures
p4451
aVfloodtide
p4452
aVtrance music
p4453
aVextreme close-up
p4454
aVben falcone
p4455
aVthis island earth
p4456
aVwhen hell broke loose
p4457
aVjourney to italy
p4458
aVultimate survival alaska
p4459
aVellen page
p4460
aVdeacon jones
p4461
aVromance & cigarettes
p4462
aVthis week
p4463
aVmelodic metalcore
p4464
aVivan kaye
p4465
aVkilling joke
p4466
aVnothing to lose
p4467
aVanimaniacs
p4468
aVescape to athena
p4469
aVpeter hambleton
p4470
aVroger craig smith
p4471
aVjohn stockwell
p4472
aVdreamchaser
p4473
aVsonam kapoor
p4474
aVchad michael murray
p4475
aVmuch ado about nothing
p4476
aVexecutive action
p4477
aVrazor sharp records
p4478
aVrules of engagement
p4479
aVm. s. narayana
p4480
aVtom odell
p4481
aVmaron
p4482
aVandre nemec
p4483
aVwiz khalifa
p4484
aVnick of time
p4485
aVtrick baby
p4486
aVwolfen
p4487
aVa funny thing happened on the way to the forum
p4488
aVflight to fury
p4489
aVsean hayes
p4490
aVotto knows
p4491
aVcharlie bewley
p4492
aVavril lavigne
p4493
aVam buffalo
p4494
aVsean caffrey
p4495
aVwilly wonka & the chocolate factory
p4496
aValanna ubach
p4497
aVken jeong
p4498
aVlandmark media enterprises
p4499
aVchadwick boseman
p4500
aVbill wallis
p4501
aVmitch allan
p4502
aVamerican ride
p4503
aVhoodie allen
p4504
aVshabana azmi
p4505
aVderek cianfrance
p4506
aVmidnight memories
p4507
aVall the king's men
p4508
aVrowan & martin's laugh-in
p4509
aVg4
p4510
aVjane fonda
p4511
aVwendy crewson
p4512
aVall is lost
p4513
aVodessa, texas
p4514
aVpunk rock
p4515
aVwe're the millers
p4516
aVkunaal roy kapur
p4517
aVradioland murders
p4518
aValexandra maria lara
p4519
aVnick damici
p4520
aVbattle of blood island
p4521
aVnight falls on manhattan
p4522
aVbad samaritans
p4523
aVcharlotte d'amboise
p4524
aVlarry the cable guy
p4525
aVi'll never forget what's'isname
p4526
aVwhodunnit?
p4527
aVktnc-tv
p4528
aVdish network
p4529
aVslug cartilage
p4530
aVanna maria horsford
p4531
aVwrapped in red
p4532
aVpower play
p4533
aVlove sign
p4534
aVdesire lines
p4535
aVridley scott
p4536
aVbedtime stories
p4537
aVadrien brody
p4538
aVcablevision
p4539
aVgarret dillahunt
p4540
aVrussell means
p4541
aVkcal-tv
p4542
aVstone sour
p4543
aVwsfa
p4544
aVmeryl streep
p4545
aVwork is a four-letter word
p4546
aVhank azaria
p4547
aVrepublic records
p4548
aVall my children
p4549
aVa hard day's night
p4550
aVa dark truth
p4551
aVmosley music group
p4552
aVdon juan demarco
p4553
aVmr. oizo
p4554
aVtoby huss
p4555
aVsportsnet la
p4556
aVdropkick murphys
p4557
aVpolly bergen
p4558
aVcatalina caper
p4559
aVsurfdog records
p4560
aVdeck the halls
p4561
aVkate bosworth
p4562
aVtyler labine
p4563
aVmarried to medicine
p4564
aVjay joyce
p4565
aVspeed of life
p4566
aVbradley joseph
p4567
aVjonathan groff
p4568
aVaugust: osage county
p4569
aVfifth harmony
p4570
aVsudden death
p4571
aVjammin' with friends
p4572
aVvictory records
p4573
aVblack rebel motorcycle club
p4574
aVgoing my way
p4575
aVseven men from now
p4576
aVvalentino
p4577
aVjes\u005cu00fas franco
p4578
aVmelissa leo
p4579
aVharry lewis
p4580
aVpuscifer
p4581
aVhall of fame
p4582
aVphase iv
p4583
aVpop rock
p4584
aVmonkey shines
p4585
aVtales of us
p4586
aVnu-disco
p4587
aVjames arthur
p4588
aVkurtwood smith
p4589
aVmame
p4590
aVben marwood
p4591
aVnathan fillion
p4592
aVwilliam hurt
p4593
aVjack the giant slayer
p4594
aVjoss whedon
p4595
aVadult swim
p4596
aVkgns
p4597
aVstop! or my mom will shoot
p4598
aVfree energy
p4599
aVcherrytree records
p4600
aVedge of night
p4601
aVmark wahlberg
p4602
aVaaron eckhart
p4603
aVpatti page
p4604
aVtony leung chiu-wai
p4605
aVamruta khanvilkar
p4606
aVgood records
p4607
aVtoo hot to handle
p4608
aVbob fisher
p4609
aVcecilia roth
p4610
aVgame show network
p4611
aVit's a date
p4612
aVlove, american style
p4613
aVfunny face
p4614
aVonce upon a time
p4615
aVjeffrey wright
p4616
aVamerican public television
p4617
aVshirley maclaine
p4618
aVtrouble in the glen
p4619
aVmohammad, messenger of god
p4620
aVwho do you think you are?
p4621
aVrichard clayderman
p4622
aVgo on
p4623
aVdunston checks in
p4624
aVlaura marling
p4625
aVtennis channel
p4626
aVplain pat
p4627
aVrajeev khandelwal
p4628
aVjeff tweedy
p4629
aVgretchen carlson
p4630
aVjohn fields
p4631
aVsecret ceremony
p4632
aVwilliam fichtner
p4633
aVjohnny simmons
p4634
aVanthony hopkins
p4635
aVimitation general
p4636
aVjean-marc vall\u005cu00e9e
p4637
aVlupita nyong'o
p4638
aVespn2
p4639
aVlosing isaiah
p4640
aVunsolved mysteries
p4641
aVtika sumpter
p4642
aVvondie curtis-hall
p4643
aVraoul trujillo
p4644
aVgod, guns & automobiles
p4645
aVdarryl read
p4646
aVrobert knepper
p4647
aVabhimanyu singh
p4648
aVjean-baptiste
p4649
aVdizzee rascal
p4650
aValice eve
p4651
aVwilliam monahan
p4652
aVatoms for peace
p4653
aVmonsters university
p4654
aVsri venkateswara creations
p4655
aVrolling stone
p4656
aVmister roberts
p4657
aVtyler perry
p4658
aVrude records
p4659
aVroad to bali
p4660
aVdeaths in march 2013
p4661
aV2nd aacta international awards
p4662
aVlyndsy fonseca
p4663
aVnuclear blast
p4664
aVhansel and gretel: witch hunters
p4665
aVno strings attached
p4666
aVstoner metal
p4667
aVzach galifianakis
p4668
aVsheryl crow
p4669
aVdallas austin
p4670
aVi never sang for my father
p4671
aVpassword plus and super password
p4672
aVjames gandolfini
p4673
aVowner's manual
p4674
aVgalaxy quest
p4675
aVkillah priest
p4676
aVkaren black
p4677
aVcharter communications
p4678
aVcorbin bernsen
p4679
aVquackser fortune has a cousin in the bronx
p4680
aVrocky iii
p4681
aVkings of leon
p4682
aVisla fisher
p4683
aVgentlemen prefer blondes
p4684
aVkirsten dunst
p4685
aVrobinson crusoe on mars
p4686
aVi am not a human being ii
p4687
aVwvtm-tv
p4688
aVjerry bruckheimer
p4689
aVanother earth
p4690
aVelectronic music
p4691
aVdonald sutherland
p4692
aVhigh flight
p4693
aVpure love
p4694
aVtoei company
p4695
aVmukesh rishi
p4696
aVdouglas booth
p4697
aV2020 in film
p4698
aVsandy pearlman
p4699
aVstephen merchant
p4700
aVmiracle laurie
p4701
aVmegadeth
p4702
aVfisher stevens
p4703
aVkate nash
p4704
aVultra records
p4705
aVjackass presents: bad grandpa
p4706
aVbenga
p4707
aVrobert schwentke
p4708
aVrainn wilson
p4709
aVjohnny marr
p4710
aVmilwaukee, wisconsin
p4711
aV2011 in television
p4712
aVone america news network
p4713
aVdeath dimension
p4714
aVben stiller
p4715
aVgeorge mackay
p4716
aVwhat's my line?
p4717
aVld entertainment
p4718
aVdoomsday castle
p4719
aVmaximum bob
p4720
aVvincent cassell
p4721
aVkarmin
p4722
aVjackie shroff
p4723
aV14th floor records
p4724
aVeddie romero
p4725
aVnatalie dormer
p4726
aVstreetlight manifesto
p4727
aVmy darkest days
p4728
aVkaitlyn dever
p4729
aVmr. wonderful
p4730
aVout of the furnace
p4731
aVlist of highest-grossing films
p4732
aVvinessa shaw
p4733
aVbarbara walters
p4734
aVliam payne
p4735
aVelectro house
p4736
aVsynthpop
p4737
aVschool ties
p4738
aVkorean hip hop
p4739
aVkindle fire
p4740
aVelectronic dance music
p4741
aVkeyt
p4742
aVm.i.a.
p4743
aVmy man godfrey
p4744
aVbattle of britain
p4745
aVgary whitta
p4746
aVbarry rothbart
p4747
aVminnie driver
p4748
aVlittle secrets
p4749
aVpat keen
p4750
aVdaniel hunt
p4751
aVheart of nowhere
p4752
aVbroth of a boy
p4753
aVnbc sports network
p4754
aVblue jasmine
p4755
aVvenus in furs
p4756
aVlightning bolt
p4757
aVktvu
p4758
aVnimr\u005cu00f3d antal
p4759
aVjames murphy
p4760
aVjohn ratzenberger
p4761
aVconan o'brien
p4762
aVmadame sousatzka
p4763
aVcocoa, florida
p4764
aVnaomie harris
p4765
aVasap rocky
p4766
aVjulia with blue jeans on
p4767
aVbad robot
p4768
aVpsychedelic pop
p4769
aVlo-fi music
p4770
aVcougar town
p4771
aVlawrence d. cohen
p4772
aVloved me back to life
p4773
aVoak hill capital partners
p4774
aVhughes brothers
p4775
aVhard to hold
p4776
aVtemptation: confessions of a marriage counselor
p4777
aVmayer hawthorne
p4778
aVunimas
p4779
aVson of rambow
p4780
aVchristopher walken
p4781
aVdaniel wesley
p4782
aVteknolust
p4783
aVjake gyllenhaal
p4784
aVambient music
p4785
aVbarrington broadcasting
p4786
aVt\u005cu014dru furuya
p4787
aVjerry o'connell
p4788
aVnewlyweds: the first year
p4789
aVdouble dragon
p4790
aVshawnee smith
p4791
aVbhavani iyer
p4792
aVromantic comedy film
p4793
aVkhou
p4794
aVpapa's delicate condition
p4795
aVtake me out to the ball game
p4796
aVciaran hinds
p4797
aVmiami vice
p4798
aVnews-press & gazette company
p4799
aVmaude
p4800
aVmadison mckinley
p4801
aVcatchfire
p4802
aVmichael b. jordan
p4803
aVbonnie hunt
p4804
aVpike 21
p4805
aVkimberly peirce
p4806
aVswordsman of siena
p4807
aVmy friend irma goes west
p4808
aVrachel mcadams
p4809
aVnotting hill
p4810
aVworms for the garden
p4811
aVeast of eden
p4812
aVsioux city
p4813
aVmark hadlow
p4814
aVseamus davey-fitzpatrick
p4815
aVtobias sammet
p4816
aVanderson live
p4817
aVpilot episode
p4818
aVred west
p4819
aVos mutantes
p4820
aVwway-dt2
p4821
aVray mckinnon
p4822
aVamrita puri
p4823
aVgettv
p4824
aVasiana airlines flight 214
p4825
aVwalton goggins
p4826
aVscott cooper
p4827
aVmachete kills
p4828
aVviacom
p4829
aVdaft punk
p4830
aVgoing the distance
p4831
aVregional sports network
p4832
aV2013 moore tornado
p4833
aVjames lance
p4834
aVevening standard
p4835
aVfoster the people
p4836
aVgama bomb
p4837
aVla crosse tribune
p4838
aVhit-boy
p4839
aVkeith urban
p4840
aVanchor bay films
p4841
aVin love and war
p4842
aVdiana & me
p4843
aVchicago police department
p4844
aVmillion dollar kid
p4845
aVceltic rock
p4846
aVmichael madsen
p4847
aVhanson
p4848
aVrachel weisz
p4849
aVlaw and disorder
p4850
aVrita ora
p4851
aVpat walshe
p4852
aVjon lovitz
p4853
aVgreg gutfeld
p4854
aVjupiter's darling
p4855
aVsanctuary records
p4856
aVdamon lindelof
p4857
aV2015 in television
p4858
aVten who dared
p4859
aVkmph-tv
p4860
aVtwelfth night: or what you will
p4861
aVwalt disney's wonderful world of color
p4862
aVdeath drums along the river
p4863
aV2008 in film
p4864
aV2013 in british music
p4865
aVhenry v
p4866
aVchillwave
p4867
aVmy little margie
p4868
aVmignon clyburn
p4869
aVjessica chastain
p4870
aVjason clarke
p4871
aVlist of highest-grossing animated films
p4872
aVfrank grillo
p4873
aVscavenger hunt
p4874
aVkilling season
p4875
aVsonakshi sinha
p4876
aVwfff-dt2
p4877
aVjon oliva
p4878
aVsimon baker
p4879
aVlegal view with ashleigh banfield
p4880
aVchris pratt
p4881
aVsony pictures classics
p4882
aVwhite house press corps
p4883
aVhelp!
p4884
aVhomeward bound ii: lost in san francisco
p4885
aVpolitical thriller
p4886
aVworld war z
p4887
aVnaoki tatsuta
p4888
aVsiberia acoustic
p4889
aVsusan douglas rubes
p4890
aVtomas arana
p4891
aVgetting even with dad
p4892
aVdolly ahluwalia
p4893
aVne-yo
p4894
aVrob schneider
p4895
aVphilip seymour hoffman
p4896
aVbrother bear
p4897
aVwarm bodies
p4898
aVmark bomback
p4899
aVdear reader
p4900
aVyoung einstein
p4901
aVsandy hook elementary school shooting
p4902
aVrobbie jones
p4903
aVrubin and ed
p4904
aVchina film group
p4905
aVhabitual levitations
p4906
aVfree willy
p4907
aVrichard matheson
p4908
aVtony shalhoub
p4909
aVgary fleder
p4910
aVpaul greengrass
p4911
aVsalsa music
p4912
aVl.a. story
p4913
aVmike spencer
p4914
aVfuck buttons
p4915
aVdan kanter
p4916
aVdanja
p4917
aVbuddy cannon
p4918
aVwkpt-tv
p4919
aVkokh-tv
p4920
aVron livingston
p4921
aVportland, oregon
p4922
aVbyung-hun lee
p4923
aVjohn dies at the end
p4924
aVbruce greenwood
p4925
aVruth negga
p4926
aVjesse eisenberg
p4927
aVfathers' day
p4928
aVforever young
p4929
aVup the down staircase
p4930
aVtrace adkins
p4931
aVpaula patton
p4932
aVamber heard
p4933
aVnicolas winding refn
p4934
aVstephen hunter
p4935
aVsave me
p4936
aVsuperman returns
p4937
aV4ad
p4938
aVonce upon a time in the west
p4939
aVcraig zisk
p4940
aVnews ticker
p4941
aVpaul humphreys
p4942
aVgrindcore
p4943
aVlist of albums released in 2013
p4944
aVtvxq
p4945
aVtv one
p4946
aVslow focus
p4947
aVamy jo johnson
p4948
aVtamsin egerton
p4949
aVemma roberts
p4950
aVhot rods to hell
p4951
aVcharlie hunnam
p4952
aVulzana's raid
p4953
aVarthur and the revenge of maltazard
p4954
aVed shaughnessy
p4955
aVdrive, he said
p4956
aVtexarkana, arkansas
p4957
aVlast embrace
p4958
aV12 years a slave
p4959
aVafi
p4960
aVbadman recording co.
p4961
aVmichele bachmann
p4962
aVwalk through exits only
p4963
aVsiddharth
p4964
aVpublic broadcasting
p4965
aVbeyond borders
p4966
aVheather graham
p4967
aVmickey rourke
p4968
aVarthur storch
p4969
aVexperimental metal
p4970
aVangus mackay
p4971
aVwhat's up, tiger lily?
p4972
aVmoving mountains
p4973
aVsean penn
p4974
aVmatthew fox
p4975
aVindie music
p4976
aVgreensboro, north carolina
p4977
aVmechanical bull
p4978
aVsong of norway
p4979
aVlabrinth
p4980
aVonce upon a honeymoon
p4981
aVsteve coulter
p4982
aVdaniel roebuck
p4983
aVrepublican party of the united states
p4984
aVaubrey woods
p4985
aVthis is how the wind shifts
p4986
aVjohn j. strauss
p4987
aVgregg hale
p4988
aVashley benson
p4989
aVsteve zahn
p4990
aVmagna carta holy grail
p4991
aV60 minutes sports
p4992
aVinstrumental rock
p4993
aVannasophia robb
p4994
aVpaul tanner
p4995
aVhappy days
p4996
aVairplane ii: the sequel
p4997
aVed helms
p4998
aVneil cross
p4999
aVirrfan khan
p5000
aVjohn gallagher, jr.
p5001
aVlaura morante
p5002
aVthree the hard way
p5003
aV2013 in japanese television
p5004
aVfall out boy
p5005
aVtheodore thomas
p5006
aVwhere the bullets fly
p5007
aValicia witt
p5008
aVmike & molly
p5009
aVrichard briers
p5010
aVnick davis
p5011
aVoliver!
p5012
aVspace chimps
p5013
aVelectronica
p5014
aVsolid state records
p5015
aVkpvi-tv
p5016
aVmusical film
p5017
aVout there
p5018
aVkristen bell
p5019
aVit shouldn't happen to a vet
p5020
aVstephen mcfeely
p5021
aVreally wild animals
p5022
aVknoxville, tennessee
p5023
aVthis tv
p5024
aVgorillas in the mist
p5025
aVangus scrimm
p5026
aVrobin williams
p5027
aVguys and dolls
p5028
aVdavid lambert
p5029
aVprimetime emmy award for outstanding choreography
p5030
aVmao's last dancer
p5031
aVman in the moon
p5032
aVoh, god! book ii
p5033
aVjim carrey
p5034
aVdothan, alabama
p5035
aVholy fire
p5036
aVscreen media films
p5037
aVlancelot and guinevere
p5038
aVhenry polic ii
p5039
aVenglish electric
p5040
aVretransmission consent
p5041
aVjosh groban
p5042
aVa double life
p5043
aVmetropolis records
p5044
aVchandan roy sanyal
p5045
aVmanorama
p5046
aVwentworth miller
p5047
aVsanjeev jaiswal
p5048
aVlou scheimer
p5049
aVdavid l. paterson
p5050
aVscooby-doo! mystery incorporated
p5051
aVbeyond the valley of the dolls
p5052
aVnanobots
p5053
aVstar trek into darkness
p5054
aVilsa, harem keeper of the oil sheiks
p5055
aVpaul rudd
p5056
aVmcmillan & wife
p5057
aVbaadshah
p5058
aVsony bmg
p5059
aVi love you, man
p5060
aVanna mouglalis
p5061
aValien dawn
p5062
aVthat handsome devil
p5063
aVkids in america
p5064
aVbunheads
p5065
aVbrad paisley
p5066
aVtimerider: the adventure of lyle swann
p5067
aVgreystoke: the legend of tarzan, lord of the apes
p5068
aVbarnaby jones
p5069
aVgolden girl
p5070
aVeastern time zone
p5071
aVyear of the comet
p5072
aVsmallville
p5073
aVjourney into fear
p5074
aVnasa tv
p5075
aVyou're next
p5076
aVstuck in love
p5077
aVbilly varga
p5078
aVwalking tall
p5079
aVdwayne johnson
p5080
aVfunny or die
p5081
aVleave it to beaver
p5082
aVspanish language
p5083
aVrichmond arquette
p5084
aVandrea bocelli
p5085
aVolivia wilde
p5086
aVa matter of time
p5087
aVwillow shields
p5088
aVpragathi
p5089
aVaj michalka
p5090
aVheroes of cosplay
p5091
aVwktv
p5092
aVgraffiti on the train
p5093
aVjames caan
p5094
aVcold war kids
p5095
aVnaked castaway
p5096
aVyolanda and the thief
p5097
aVmegaforce records
p5098
aVcaddyshack ii
p5099
aVtyler williams
p5100
aVandy kaufman
p5101
aVtrey songz
p5102
aVsun herald
p5103
aVamidou
p5104
aVfort utah
p5105
aVnew line cinema
p5106
aVdiplo
p5107
aVgunfight in abilene
p5108
aVvatel
p5109
aVkumail nanjiani
p5110
aVterror is a man
p5111
aVacme communications
p5112
aVcharlie day
p5113
aVstar trak entertainment
p5114
aVcry of jazz
p5115
aVl.a. frock stars
p5116
aVhuayi brothers
p5117
aVathina rachel tsangari
p5118
aVwjhg-tv
p5119
aVmusic video
p5120
aVtobey maguire
p5121
aVu-god
p5122
aVmetrosexual
p5123
aVj.u.s.t.i.c.e. league
p5124
aVedgar wright
p5125
aVsaoirse ronan
p5126
aVdannielle brent
p5127
aVmuppet babies
p5128
aVpan hong
p5129
aVasa butterfield
p5130
aVessence atkins
p5131
aValan cumming
p5132
aVlawrence blume
p5133
aVst. louis, missouri
p5134
aVunim\u005cu00e1s
p5135
aVwinter meeting
p5136
aVconcord monitor
p5137
aVpearl jam
p5138
aVmatthew michael carnahan
p5139
aVintolerable cruelty
p5140
aVjon chu
p5141
aVnbcuniversal
p5142
aVcunningham broadcasting
p5143
aVethan hawke
p5144
aVerica ash
p5145
aVjoe brown
p5146
aVpriyanka chopra
p5147
aVchiptune
p5148
aVzach stone is gonna be famous
p5149
aV2016 in film
p5150
aVmodern vampires of the city
p5151
aVxox betsey johnson
p5152
aVkaren's song
p5153
aVnight time, my time
p5154
aVan innocent man
p5155
aVcrowd goes wild
p5156
aVkiefer sutherland
p5157
aVford theatre
p5158
aVderek mears
p5159
aVdream theater
p5160
aVm. ward
p5161
aVterrence jenkins
p5162
aVcbs news
p5163
aVsteve coogan
p5164
aVscott mcgehee
p5165
aVwhose line is it anyway?
p5166
aVsuperior, nebraska
p5167
aVjamie campbell bower
p5168
aVac/dc
p5169
aVwbin-tv
p5170
aVgirls just want to have fun
p5171
aVmca nashville
p5172
aVlola due\u005cu00f1as
p5173
aVgreg pritikin
p5174
aVusa network
p5175
aVscottsbluff, nebraska
p5176
aVadam mckay
p5177
aVtea and sympathy
p5178
aVcity and colour
p5179
aVdavid early
p5180
aVcapitol nashville
p5181
aVdon payne
p5182
aValex o'loughlin
p5183
aV2013\u005cu201314 united states network television schedule
p5184
aVjulian fellowes
p5185
aVjustin bartha
p5186
aVjackson, tennessee
p5187
aVzorro
p5188
aVarie posin
p5189
aVgavin brown
p5190
aVowen wilson
p5191
aVmonica lewinsky
p5192
aVtyrese gibson
p5193
aVwnbw-dt
p5194
aVspike tv
p5195
aVnadine velazquez
p5196
aValpha dogs
p5197
aVdavid kosten
p5198
aVgeri halliwell
p5199
aVczarface
p5200
aVchristopher meloni
p5201
aVamerican gigolo
p5202
aVray liotta
p5203
aVdr. seuss' how the grinch stole christmas
p5204
aVdamiano damiani
p5205
aVpaddy considine
p5206
aVyou've got mail
p5207
aVtarget: harry
p5208
aVroman coppola
p5209
aVeshraque \u005c"ishi\u005c" mughal
p5210
aVfangasm
p5211
aVrussell s. doughten
p5212
aVted post
p5213
aVjean dujardin
p5214
aVterry rossio
p5215
aVbang goes the theory
p5216
aVchanchal chowdhury
p5217
aVstroker ace
p5218
aVglenn cannon
p5219
aVrat farm
p5220
aVkill a dragon
p5221
aVfox soccer
p5222
aVpranitha subhash
p5223
aVmatru ki bijlee ka mandola
p5224
aVrun for your wife
p5225
aVmario machado
p5226
aVmichael rapaport
p5227
aVson of sinbad
p5228
aVcountry rock
p5229
aVgreat falls, montana
p5230
aVshaquille o'neal
p5231
aVrichard c. sarafian
p5232
aVstuart freeborn
p5233
aVfrances ha
p5234
aVrobert patrick
p5235
aVscott neustadter
p5236
aVmonkey grip
p5237
aVhaim
p5238
aVsayantani ghosh
p5239
aVbengal brigade
p5240
aVprogressive rock
p5241
aVwjtv-tv
p5242
aVj\u005cu00f6rgen elofsson
p5243
aVfailosophy
p5244
aVman with a gun
p5245
aVno one lives
p5246
aVrobert davi
p5247
aVfinal destination
p5248
aValan rickman
p5249
aVchris colfer
p5250
aVbrian tee
p5251
aVhansika motwani
p5252
aVmichael giannatos
p5253
aVjohn shanks
p5254
aVliving for the weekend
p5255
aVclaudette lali
p5256
aVconflict of wings
p5257
aVgreaser's palace
p5258
aVwatn-tv
p5259
aVemily meade
p5260
aVfive finger death punch
p5261
aVsavage sisters
p5262
aVhardcore punk
p5263
aVsign of the pagan
p5264
aVa good day to die hard
p5265
aVsouth park
p5266
aVbreak of day
p5267
aVsleeping car to trieste
p5268
aVtomorrow we die \u005cu2206live
p5269
aVrichie havens
p5270
aVbritney spears
p5271
aVannet mahendru
p5272
aVwhite palace
p5273
aVkube-tv
p5274
aVself made vol. 3
p5275
aVvampire circus
p5276
aVchariots of fire
p5277
aVlone survivor
p5278
aValways in my heart
p5279
aVjohn munch
p5280
aVlindsey shaw
p5281
aVfontana distribution
p5282
aVamaury nolasco
p5283
aVarmed & ready
p5284
aVyuma, arizona
p5285
aVstorage wars
p5286
aVnicholas hoult
p5287
aVparade's end
p5288
aVnoah danby
p5289
aVsea of love
p5290
aVdita von teese
p5291
aVjames tolkan
p5292
aVkgwn
p5293
aVhln
p5294
aVcolette carr
p5295
aVindependent station
p5296
aVmeat puppets
p5297
aVmatias kupiainen
p5298
aVblue streak
p5299
aVbetty white's off their rockers
p5300
aVjay robinson
p5301
aVsummit entertainment
p5302
aVnext stop, greenwich village
p5303
aVautobiography of a princess
p5304
aVroger ebert
p5305
aVtraditional pop music
p5306
aVdeathstalker
p5307
aVwciu-tv
p5308
aVinvisible empire // crescent moon
p5309
aVuniversal republic
p5310
aVsean sasser
p5311
aVfamily plot
p5312
aVjuliana hatfield
p5313
aVconcord jazz
p5314
aVfish police
p5315
aVfrankenstein must be destroyed
p5316
aVset you free
p5317
aVtaye diggs
p5318
aVjohn feldmann
p5319
aVscott stapp
p5320
aVnbc studios
p5321
aVthomas mann
p5322
aVcity slang records
p5323
aVbarbara werle
p5324
aVnew demons
p5325
aVurban legends: final cut
p5326
aVmovies!
p5327
aVmurder, she wrote
p5328
aVmaneesh sharma
p5329
aVpurno doirgho prem kahini
p5330
aVnicole laliberte
p5331
aVfat possum records
p5332
aVtricky stewart
p5333
aVdaley
p5334
aVgogol bordello
p5335
aVdrew pearson
p5336
aV2013 ncaa men's division i basketball tournament
p5337
aVartpop
p5338
aVmen's magazine
p5339
aVarista nashville
p5340
aVrob cavallo
p5341
aVrap metal
p5342
aVhollywood records
p5343
aVambyr childers
p5344
aVjulie harris
p5345
aValan o'day
p5346
aVmountain movers
p5347
aVandy and his grandmother
p5348
aVparesh rawal
p5349
aVde sade
p5350
aVpulitzer prize
p5351
aVa handful of dust
p5352
aVstewardess school
p5353
aVjames cosmo
p5354
aVjon lucas
p5355
aVinstant mom
p5356
aVkstf
p5357
aVlisa whelchel
p5358
aVheavy metal music
p5359
aVchris brown
p5360
aVelizabeth olsen
p5361
aVanjali
p5362
aVrobert nichols
p5363
aVthat was the week that was
p5364
aVleslie bohem
p5365
aVrodrigo garc\u005cu00eda
p5366
aVt-bone
p5367
aVliz lemon
p5368
aVhomer simpson
p5369
aVraising america with kyra phillips
p5370
aVknights of the city
p5371
aVhan hong
p5372
aVking rat
p5373
aVat any price
p5374
aVtravel channel
p5375
aVanne-marie duff
p5376
aVjack plotnick
p5377
aVjurassic park
p5378
aVsports films
p5379
aVsala baker
p5380
aVbilly ray
p5381
aVali velshi
p5382
aVpagan love song
p5383
aVjohn crowley
p5384
aVrock and roll
p5385
aVjamie foxx
p5386
aVsummerfield
p5387
aVsuper bowl xliv
p5388
aVmatthew nable
p5389
aVcatherine zeta-jones
p5390
aVkfyr-tv
p5391
aVstar wars
p5392
aVfrank welker
p5393
aVemile hirsch
p5394
aVv\u005cu00edctor mart\u005cu00ednez
p5395
aVbiffy clyro
p5396
aVkansas city bomber
p5397
aVprimeval: new world
p5398
aVnashua, new hampshire
p5399
aVup the sandbox
p5400
aVinspiration: a tribute to nat king cole
p5401
aVwade williams
p5402
aVcaptains of the clouds
p5403
aVstephen baldwin
p5404
aVfast & furious 6
p5405
aVrealclearpolitics
p5406
aVda vinci's demons
p5407
aVliana liberato
p5408
aVblue in the face
p5409
aVgraceland
p5410
aVused people
p5411
aVfamily tree
p5412
aVwgnt
p5413
aVlily collins
p5414
aVknife party
p5415
aVmark protosevich
p5416
aVnext stop wonderland
p5417
aVcorinne grant
p5418
aVeegah
p5419
aVface/off
p5420
aVutv motion pictures
p5421
aVchlo\u005cu00eb grace moretz
p5422
aVdavid warshofsky
p5423
aVjulius caesar
p5424
aVdirty little billy
p5425
aVbring me the horizon
p5426
aVlisa robin kelly
p5427
aVvalerie harper
p5428
aVr. kelly
p5429
aVj-pop
p5430
aVtracing back roots
p5431
aVchase & status
p5432
aVmetallica: through the never
p5433
aVgothic metal
p5434
aVmy wife's lodger
p5435
aVtwilight zone: the movie
p5436
aVlucy boynton
p5437
aVreliance entertainment
p5438
aVpromises! promises!
p5439
aVfox sports networks
p5440
aVdutch house
p5441
aVtrial and error
p5442
aVmoon over parador
p5443
aVrough trade records
p5444
aVcutthroat kitchen
p5445
aVlittle big league
p5446
aVpaul worley
p5447
aVcreepshow
p5448
aVbroadcast syndication
p5449
aVweathermaker music
p5450
aVbroken arrow
p5451
aVmegumi hayashibara
p5452
aVkrakatoa, east of java
p5453
aVtrouble with the curve
p5454
aVjosh brolin
p5455
aVmethod man
p5456
aVzola jesus
p5457
aVbarsuk records
p5458
aVlondon with the lights on
p5459
aVunited states courts of appeals
p5460
aVglamour of the kill
p5461
aVbrendan fraser
p5462
aVchitrangada singh
p5463
aVunivision noticias
p5464
aVwwcw
p5465
aVsarah wright
p5466
aVlesley ann warren
p5467
aVmichael ian black
p5468
aVwondrous oblivion
p5469
aVsharknado
p5470
aVjos\u005cu00e9 ram\u005cu00f3n larraz
p5471
aVmikael persbrandt
p5472
aVdave grohl
p5473
aVvancouver police department
p5474
aVpeter svensson
p5475
aVmichael ansara
p5476
aVfilipino people
p5477
aVtony cox
p5478
aVpauly shore is dead
p5479
aVlo mang
p5480
aVhasbro studios
p5481
aViraq war
p5482
aVinvaders from mars
p5483
aVemily blunt
p5484
aVdave foley
p5485
aVa gunfight
p5486
aVx the unknown
p5487
aV666 park avenue
p5488
aVpeter wight
p5489
aVi'm not there
p5490
aVromeo and juliet
p5491
aVclear history
p5492
aVmandingo
p5493
aVshake it up
p5494
aVhere come the girls
p5495
aVliar liar
p5496
aVnew girl
p5497
aVaction film
p5498
aVdimension films
p5499
aVhow i live now
p5500
aVdavid klass
p5501
aVbill cobbs
p5502
aVtv guide
p5503
aVcalifornia's gold
p5504
aVpeter morgan
p5505
aVcombat!
p5506
aVfrank thornton
p5507
aVdoug ellin
p5508
aVzarina wahab
p5509
aVphil anselmo
p5510
aVtia & tamera
p5511
aVfarooq sheikh
p5512
aVfranz ferdinand
p5513
aVa. l. vijay
p5514
aVbraveheart
p5515
aVkenji utsumi
p5516
aVpoint of no return
p5517
aVraw deal
p5518
aVmary poppins
p5519
aVatiqah hasiholan
p5520
aVchristoph waltz
p5521
aVclara blandick
p5522
aVemanuel kiriakou
p5523
aVbrendan benson
p5524
aVwnep-tv
p5525
aVmark ronson
p5526
aVprakash raj
p5527
aVthere's no business like show business
p5528
aVrichard gere
p5529
aVlast lunch
p5530
aVpaul popplewell
p5531
aVlove will...
p5532
aVhollywood game night
p5533
aVbrian helgeland
p5534
aVan enemy of fate
p5535
aVmary matalin
p5536
aV2013 oakland athletics season
p5537
aVyeah yeah yeahs
p5538
aVrobert baker
p5539
aVnorth america
p5540
aVpeter pan
p5541
aVmark oliver everett
p5542
aVjahlil beats
p5543
aVkiss land
p5544
aVillumination entertainment
p5545
aV...like clockwork
p5546
aVmichael weber
p5547
aVpankaj tripathi
p5548
aVdavid spenser
p5549
aVcarried away
p5550
aVbreakheart pass
p5551
aVadam lefevre
p5552
aVdave petitjean
p5553
aVleann rimes
p5554
aVuniversal studios
p5555
aVantje traue
p5556
aVnew york city
p5557
aVnatalia kills
p5558
aVluke wilson
p5559
aVlionsgate films
p5560
aVtom hollander
p5561
aVmariangela melato
p5562
aVtales of wells fargo
p5563
aVkaitlin olson
p5564
aVson of the pink panther
p5565
aVken jennings
p5566
aViv play
p5567
aVtaste in translation
p5568
aVfred armisen
p5569
aVsteven knight
p5570
aVluke bryan
p5571
aVclancy brown
p5572
aVsam & cat
p5573
aVgonks go beat
p5574
aVmolly shannon
p5575
aVsludge metal
p5576
aVmike gray
p5577
aVin search of the castaways
p5578
aVawesomenesstv
p5579
aVjim matheos
p5580
aVlouis leterrier
p5581
aVkings of the evening
p5582
aVdj frank e
p5583
aVcall me mister
p5584
aVlootera
p5585
aVsunshine on leith
p5586
aVthey met in argentina
p5587
aVcung le
p5588
aVi wanna hold your hand
p5589
aVnicole scherzinger
p5590
aVfox cities
p5591
aVdeath wish
p5592
aVtriple crown records
p5593
aVso i married an axe murderer
p5594
aVnick launay
p5595
aVno mercy
p5596
aVhope and gloria
p5597
aVsettai
p5598
aVpharrell williams
p5599
aVharvest records
p5600
aVj\u005cu014dji yanami
p5601
aVj. cole
p5602
aVnoel langley
p5603
aVage against the machine
p5604
aVnational lampoon's european vacation
p5605
aVsarah jessica parker
p5606
aVgidget
p5607
aVlaverne and shirley
p5608
aVindietronica
p5609
aVharriet the spy
p5610
aVwilly switkes
p5611
aVfrenchkiss records
p5612
aV2012\u005cu201313 united states network television schedule
p5613
aVpirates of the caribbean: at world's end
p5614
aVella henderson
p5615
aVmelvin van peebles
p5616
aVsoft rock
p5617
aVgina carano
p5618
aVglassnote records
p5619
aVold warner brothers studio
p5620
aVcurb records
p5621
aVdouble talk
p5622
aVatp recordings
p5623
aVliving free
p5624
aVrapid city, south dakota
p5625
aVenter the dragon
p5626
aVno blade of grass
p5627
aVfat albert and the cosby kids
p5628
aVmartha greenhouse
p5629
aVfriday the 13th part iii
p5630
aVreese witherspoon
p5631
aVsurf rock
p5632
aVyuna
p5633
aVkeep the aspidistra flying
p5634
aVblack ink crew
p5635
aVdigital cable
p5636
aVhiroyuki sanada
p5637
aVconservatism in the united states
p5638
aVdownhill racer
p5639
aVkarma's a b*tch
p5640
aVbeware the batman
p5641
aVgirl who got away
p5642
aVoldboy
p5643
aVdave franco
p5644
aV72 hours
p5645
aVamazing stories
p5646
aVjohn calvert
p5647
aVexcuse my french
p5648
aVi, me aur main
p5649
aVlook who's laughing
p5650
aVeric turner
p5651
aVproduction company
p5652
aVneofolk
p5653
aVchris kyle
p5654
aVlife on a rock
p5655
aVrichard schiff
p5656
aVcooking vinyl
p5657
aVlove in waiting
p5658
aVblood on satan's claw
p5659
aVweathernation tv
p5660
aVemmy award
p5661
aVstreet legal
p5662
aVuniversal music
p5663
aVpusha t
p5664
aVrob estes
p5665
aVkirk hammett
p5666
aVblack out the sun
p5667
aVfarhan akhtar
p5668
aVkveikur
p5669
aVcolonial media and entertainment
p5670
aVsharron levy
p5671
aVmichelle danner
p5672
aVhellcat records
p5673
aVdeekay
p5674
aVsteve mcqueen
p5675
aVherman cain
p5676
aVeskibeat
p5677
aVon an island with you
p5678
aVxenomania
p5679
aVeduardo s\u005cu00e1nchez
p5680
aVhe who rides a tiger
p5681
aVfrank morriss
p5682
aVjeff daniel phillips
p5683
aVlatin music
p5684
aVarija bareikis
p5685
aVbeyond atlantis
p5686
aVmad decent
p5687
aVtom denney
p5688
aVbruno mars
p5689
aVdigby, the biggest dog in the world
p5690
aVorchestra wives
p5691
aVben affleck
p5692
aVblack on blonde
p5693
aVsam phillips
p5694
aVrunner, runner
p5695
aValex kurtzman
p5696
aVnolan gould
p5697
aVsikandar kher
p5698
aVa star is born
p5699
aVmichael shannon
p5700
aVchristopher guest
p5701
aVedel ag
p5702
aVfree the universe
p5703
aVsugar music
p5704
aVhow to stuff a wild bikini
p5705
aVnate and hayes
p5706
aVbillie burke
p5707
aVfrontiers records
p5708
aVsunday morning talk shows
p5709
aVnow what?!
p5710
aVlesley nicol
p5711
aVkylie minogue
p5712
aVrollerball
p5713
aVmagnum force
p5714
aVchris o'dowd
p5715
aVcrowd rules
p5716
aVeverything you always wanted to know about sex*
p5717
aVstay hungry
p5718
aVtony brown
p5719
aVa new leaf
p5720
aVandrew niccol
p5721
aVangela kinsey
p5722
aVpaul dano
p5723
aVsan ferry ann
p5724
aVboston marathon bombings
p5725
aVbrant bjork
p5726
aVnicole holofcener
p5727
aVhulk and the agents of s.m.a.s.h.
p5728
aVbeverly hills, 90210 franchise
p5729
aVquvenzhan\u005cu00e9 wallis
p5730
aVlenny kravitz
p5731
aVseth gordon
p5732
aVkroll show
p5733
aVtotal nonstop action wrestling
p5734
aVpeoria, illinois
p5735
aVreturn to the blue lagoon
p5736
aVmarvel studios
p5737
aVsterling beaumon
p5738
aVteen film
p5739
aVfinal destination 3
p5740
aVpoet's pub
p5741
aVkyma
p5742
aV2013 sundance film festival
p5743
aVpawan kalyan
p5744
aVgrinning streak
p5745
aVfrench montana
p5746
aVmtv hits
p5747
aVjoe don baker
p5748
aVcirkut
p5749
aVpj torokvei
p5750
aVmix me a person
p5751
aV2011 in american television
p5752
aVcharlie's angels
p5753
aVwashington heights
p5754
aVdarkness in a different light
p5755
aVmilo o'shea
p5756
aVshane carruth
p5757
aVbarbara trentham
p5758
aVwestworld
p5759
aVwway
p5760
aVdisorganized crime
p5761
aVroc a fella records
p5762
aVadam marcus
p5763
aVvagrant records
p5764
aVcitadel communications
p5765
aVa skylit drive
p5766
aVbruce dern
p5767
aVold sock
p5768
aValternative rock
p5769
aVjosh gad
p5770
aVhouse of gold & bones \u005cu2013 part 2
p5771
aVarchie bunker's place
p5772
aVseven women from hell
p5773
aVpacific blue
p5774
aVwvtt-ca
p5775
aVlindsay bushman
p5776
aVriaad moosa
p5777
aVstuart price
p5778
aVghost mine
p5779
aVangel heart
p5780
aVeleanor tomlinson
p5781
aVris\u005cu00eb stevens
p5782
aVlost sirens
p5783
aVcyndi lauper: still so unusual
p5784
aVdoes someone have to go?
p5785
aVlet's rock
p5786
aVcentury media records
p5787
aVnorbert leo butz
p5788
aVinn for trouble
p5789
aVsteve allen
p5790
aVbabyface
p5791
aVb.o.a.t.s. ii: me time
p5792
aVthis is the sea
p5793
aVisiah whitlock, jr.
p5794
aVcaleb landry jones
p5795
aVtropical rock
p5796
aVfree people
p5797
aVdavid fox
p5798
aVsean combs
p5799
aVme in motion
p5800
aVyeezus
p5801
aVbenjamin bratt
p5802
aVtele-communications, inc.
p5803
aVmf doom
p5804
aValexander payne
p5805
aVavant-garde music
p5806
aVchildren of bodom
p5807
aVnatalie maines
p5808
aVbam margera
p5809
aVatharintiki daaredi
p5810
aVforty thieves
p5811
aVfun with dick and jane
p5812
aVjames marsden
p5813
aVstanley tucci
p5814
aVdzhokhar and tamerlan tsarnaev
p5815
aVmouth of swords
p5816
aVpatrick fugit
p5817
aVbig ten network
p5818
aVdon't trust the b---- in apartment 23
p5819
aVblack samurai
p5820
aVgravedale high
p5821
aVkate winslet
p5822
aVhan geng
p5823
aVchristopher fitzgerald
p5824
aVfruitvale station
p5825
aVmannequin two: on the move
p5826
aVeasy to wed
p5827
aVaxe cop
p5828
aVshort cut to hell
p5829
aVboys' night out
p5830
aVchiwetel ejiofor
p5831
aVbritney jean
p5832
aVstardust on the sage
p5833
aVcox communications
p5834
aVc'mon take on me
p5835
aVarmie hammer
p5836
aVpeter berg
p5837
aVhow stella got her groove back
p5838
aVprovidence, rhode island
p5839
aVoscar isaac
p5840
aVbucket & skinner's epic adventures
p5841
aVfeed me
p5842
aVian holm
p5843
aVhugo johnstone-burt
p5844
aVcasino royale
p5845
aVcreative artists agency
p5846
aVjoel little
p5847
aVtop of the lake
p5848
aVmaxine stuart
p5849
aVtribune company
p5850
aVin your hands
p5851
aVtom rothrock
p5852
aVnoomi rapace
p5853
aVdennis farina
p5854
aVjimmy \u005c"jax\u005c" pinchak
p5855
aVlittle big man
p5856
aVstraight out of hell
p5857
aVfour weddings and a funeral
p5858
aVragini nandwani
p5859
aVbbc america
p5860
aVsplitting heirs
p5861
aVmindy robinson
p5862
aVmelophobia
p5863
aVgreat catherine
p5864
aVdanny strong
p5865
aVfran\u005cu00e7ois arnaud
p5866
aVkaskade
p5867
aVfrench connection ii
p5868
aValice in chains
p5869
aVpeter stormare
p5870
aVderek magyar
p5871
aVashley rickards
p5872
aVinnocent blood
p5873
aVrodney jerkins
p5874
aVadam young
p5875
aVkhbb-ld
p5876
aVthrow momma from the train
p5877
aVjonathan rhys meyers
p5878
aVlast rites
p5879
aVnawazuddin siddiqui
p5880
aVs.w.a.t.
p5881
aVaudience network
p5882
aVindie folk
p5883
aVzhao benshan
p5884
aVcatherine keener
p5885
aVnavy log
p5886
aVchristmas holiday
p5887
aVsavoy records
p5888
aVrodaidh mcdonald
p5889
aV52 pick-up
p5890
aVaugust burns red
p5891
aVwhat about bob?
p5892
aVendless fantasy
p5893
aVsoul music
p5894
aVwarlords of the 21st century
p5895
aVchasing the saturdays
p5896
aVmatt prokop
p5897
aVtimothy olyphant
p5898
aVkim kardashian
p5899
aVdomenick lombardozzi
p5900
aVwillem dafoe
p5901
aVdrop zone
p5902
aVbackyard oil
p5903
aVhomefront
p5904
aVtill the clouds roll by
p5905
aVfrank wood
p5906
aVsinbad and the eye of the tiger
p5907
aVtiesto
p5908
aVhulu
p5909
aVnikolaj coster-waldau
p5910
aVgreenfingers
p5911
aVa&e
p5912
aVjon voight
p5913
aVgeno lenardo
p5914
aVkylesa
p5915
aVdances with wolves
p5916
aVakshay kumar
p5917
aVsony music latin
p5918
aVmiles jupp
p5919
aVstand up, virgin soldiers
p5920
aVdick morris
p5921
aVdocumentary channel
p5922
aV2012 in television
p5923
aVjeanne cooper
p5924
aV70th golden globe awards
p5925
aVbruce davison
p5926
aVchicago bulls
p5927
aVmark chao
p5928
aVzachary levi
p5929
aVcitizen kane
p5930
aVoutside music
p5931
aVkt tunstall
p5932
aVbrian ackland-snow
p5933
aVdavid foster
p5934
aVcory rooney
p5935
aVtwo gentlemen sharing
p5936
aVanna kendrick
p5937
aVdiagnosis: murder
p5938
aVkaran johar
p5939
aVlaura michelle kelly
p5940
aVbad boys
p5941
aVdavid denman
p5942
aVbritannia hospital
p5943
aVrobert relyea
p5944
aVsteve bellamy
p5945
aVbrendan o'brien
p5946
aVbullet for my valentine
p5947
aVdangerous when wet
p5948
aVjohn wells
p5949
aVberg ng
p5950
aVeyewitness news
p5951
aVfiction records
p5952
aVlost in the stars
p5953
aVrosario dawson
p5954
aVpatricia blair
p5955
aVportrait of a mobster
p5956
aVmr. majestyk
p5957
aVwlwc
p5958
aVtrials & tribulations
p5959
aVwlns-tv
p5960
aVin the flesh
p5961
aVadam wingard
p5962
aVkishor kadam
p5963
aVkangna ranaut
p5964
aVasap ferg
p5965
aVchris goss
p5966
aVchris ellis
p5967
aVi see stars
p5968
aVsubbu panchu arunachalam
p5969
aVcode of silence
p5970
aVkota srinivasa rao
p5971
aVkatherine woodville
p5972
aV8mm
p5973
aVwelcome to the punch
p5974
aVwilliam orbit
p5975
aVandy samberg
p5976
aVlisa marie
p5977
aVdamian lee
p5978
aVsteel magnolias
p5979
aVayreon
p5980
aVexit to eden
p5981
aV2003 in film
p5982
aVassault on a queen
p5983
aVmax burkholder
p5984
aVhayley mcfarland
p5985
aVvirgin records
p5986
aVvolbeat
p5987
aVzendaya
p5988
aVstainless broadcasting company
p5989
aVseattle, washington
p5990
aVjohn kassir
p5991
aVneedtobreathe
p5992
aVadam sandler
p5993
aVj records
p5994
aVsean saves the world
p5995
aVsome kind of a nut
p5996
aVwill gregory
p5997
aV2013 mtv movie awards
p5998
aVpeter fonda
p5999
aVellen mclain
p6000
aVwnya
p6001
aVkim ji-woon
p6002
aVguillermo toledo
p6003
aVrichard armitage
p6004
aVk-os
p6005
aVkwyb
p6006
aVwnyt
p6007
aVmarnie stern
p6008
aVwnyw
p6009
aVexecutive producer
p6010
aVshirley henderson
p6011
aVtribune entertainment
p6012
aVmikael hafstrom
p6013
aVmoulin rouge!
p6014
aVcan't help singing
p6015
aVtougher than leather
p6016
aVudhao
p6017
aVpractically yours
p6018
aVcody cameron
p6019
aVacoustic rock
p6020
aVstroumboulopoulos
p6021
aVmichael crichton
p6022
aVbombers b-52
p6023
aVb-room
p6024
aVjim rash
p6025
aVjason schwartzman
p6026
aVoperatic pop
p6027
aVholly rowe
p6028
aVcouncil cargle
p6029
aVconscious hip hop
p6030
aV63rd berlin international film festival
p6031
aVcarry on screaming!
p6032
aVstyle network
p6033
aVchetan bhagat
p6034
aVhugh jackman
p6035
aVdaktari
p6036
aVmorgan \u005cu2013 a suitable case for treatment
p6037
aVsteve agee
p6038
aVjavier c\u005cu00e1mara
p6039
aVdann huff
p6040
aVshaun lopez
p6041
aVsan luis obispo
p6042
aVmedia market
p6043
aVrogue cop
p6044
aVdon cheadle
p6045
aVwoai-tv
p6046
aVvanishing point
p6047
aVmajor league baseball
p6048
aVmultichannel news
p6049
aVhorns and halos
p6050
aVwalter afanasieff
p6051
aVjames v. hart
p6052
aValexander ludwig
p6053
aVtimbaland
p6054
aVjourney back to oz
p6055
aVgreg wells
p6056
aVself-publishing
p6057
aVstereophonics
p6058
aVnorman reedus
p6059
aVsprint cup series
p6060
aVvivi bach
p6061
aVben harper
p6062
aVhari sreenivasan
p6063
aVwill.i.am
p6064
aVjames dumont
p6065
aVfred wolf
p6066
aVtarget earth
p6067
aV12 monkeys
p6068
aVjames wan
p6069
aVgrey's anatomy
p6070
aVsally hawkins
p6071
aVmad love
p6072
aVderek kwok
p6073
aVthor: the dark world
p6074
aVfaith hill
p6075
aVjoan of arcadia
p6076
aVhieroglyphics imperium recordings
p6077
aVprick up your ears
p6078
aVjohn abraham
p6079
aVichabod and me
p6080
aVpizza cuz
p6081
aVunder suspicion
p6082
aVsomething borrowed, something new
p6083
aVgrey owl
p6084
aVharry connick jr.
p6085
aVcoming to america
p6086
aVfreak folk
p6087
aVs.m. entertainment usa
p6088
aVdrumma boy
p6089
aVhip house
p6090
aVdeadline.com
p6091
aVsan antonio, texas
p6092
aVchristian alternative rock
p6093
aVfrogs for snakes
p6094
aVowned-and-operated station
p6095
aVfuture plc
p6096
aVtrust me, i'm a game show host
p6097
aVmedia general
p6098
aVsomething else
p6099
aVknots landing
p6100
aVwjac-tv
p6101
aVst. elmo's fire
p6102
aVquest for love
p6103
aVbig trouble
p6104
aVmichael chiklis
p6105
aVblue october
p6106
aVjon favreau
p6107
aVcrash my party
p6108
aVpee-wee's playhouse
p6109
aVsupercock
p6110
aVtake me to your mother
p6111
aVski troop attack
p6112
aValex da kid
p6113
aVbrian percival
p6114
aVrunning brave
p6115
aVantoine fuqua
p6116
aVsundance selects
p6117
aVcolumbia pictures
p6118
aVnikhil advani
p6119
aVpirates of the caribbean: on stranger tides
p6120
aVstarter wives confidential
p6121
aVyuen woo-ping
p6122
aVrichard thorp
p6123
aVcity of fear
p6124
aVbrad william henke
p6125
aVlove you, mean it with whitney cummings
p6126
aVolm, inc.
p6127
aVkrxi-tv
p6128
aVesgn
p6129
aVscott rosenberg
p6130
aVstay trippy
p6131
aVrotimi
p6132
aVamerican idols live! tour 2013
p6133
aVanthony hinds
p6134
aVriddick
p6135
aVskrillex
p6136
aVchristopher yost
p6137
aVmousehunt
p6138
aVblack rock
p6139
aVuma thurman
p6140
aVbloodshy & avant
p6141
aVmichael arndt
p6142
aVinsideout music
p6143
aVcapital cities
p6144
aVa&m records
p6145
aVrona anderson
p6146
aVbubble boy
p6147
aVsherman, texas
p6148
aVspecial 26
p6149
aVhugo weaving
p6150
aValexandre azaria
p6151
aVchad hartigan
p6152
aVfrom the mixed-up files of mrs. basil e. frankweiler
p6153
aValexander skarsgard
p6154
aVwarlords of atlantis
p6155
aVester dean
p6156
aVmeenakshi dixit
p6157
aVkatie melua
p6158
aVvertigo records
p6159
aVprincesses: long island
p6160
aVryan seacrest
p6161
aVfred willard
p6162
aVmatangi
p6163
aVcolumbus, ohio
p6164
aVgore verbinski
p6165
aVflamingo road
p6166
aVken stott
p6167
aVlewis hamilton
p6168
aVjeff bridges
p6169
aVra ra riot
p6170
aVrussell crowe
p6171
aVwdni-cd
p6172
aVjames mcavoy
p6173
aVmorcheeba
p6174
aVgirl most likely
p6175
aVbismarck, north dakota
p6176
aVrinko kikuchi
p6177
aVpunk music
p6178
aV78violet
p6179
aVcharles in charge
p6180
aVice cube
p6181
aVblue sky
p6182
aVevansville, indiana
p6183
aVparis hilton
p6184
aVmichael kenneth williams
p6185
aVtru loved
p6186
aValexandra cassavetes
p6187
aVnba inside stuff
p6188
aVleaving las vegas
p6189
aVdisney-abc domestic television
p6190
aVahna o'reilly
p6191
aVseth rogen
p6192
aVcatch my soul
p6193
aVthis time for keeps
p6194
aVspy hard
p6195
aVarrested development
p6196
aVrob mathes
p6197
aVlloyd phillips
p6198
aVa fan's notes
p6199
aVheaven in this hell
p6200
aVtexas chainsaw 3d
p6201
aV2011 in home video
p6202
aVmtv2
p6203
aVannette benning
p6204
aV2001: a space odyssey
p6205
aVpaul blackwell
p6206
aVdirtee stank
p6207
aVtouched by an angel
p6208
aVwten
p6209
aVjames carville
p6210
aVthat man in istanbul
p6211
aVdr. luke
p6212
aVsam rockwell
p6213
aVneill blomkamp
p6214
aVwatertown, massachusetts
p6215
aVjanelle mon\u005cu00e1e
p6216
aVpush any button
p6217
aVburn gorman
p6218
aVnbc
p6219
aVwarner music group
p6220
aVryan coogler
p6221
aVvanguard records
p6222
aVgiving you the business
p6223
aVstephen chow
p6224
aVv/h/s/2
p6225
aVbritish sea power
p6226
aVknpl-ld
p6227
aVrelient k
p6228
aVsrinu vaitla
p6229
aVjimmy wong
p6230
aVbill gerber
p6231
aVmichelle pfeiffer
p6232
aVcinemax
p6233
aVrobert de niro
p6234
aVprincess of the nile
p6235
aVjohn hurt
p6236
aVhimmatwala
p6237
aVcaroline in the city
p6238
aVlegendary pictures
p6239
aVdays of our lives
p6240
aVtrip-hop
p6241
aVmundofox
p6242
aVanne heche
p6243
aVpancake heater
p6244
aVfreddie gibbs
p6245
aVharry styles
p6246
aVwilliam cartwright
p6247
aVkark-tv
p6248
aVtookah
p6249
aVsean kingston
p6250
aVkyle townsend
p6251
aVfox television stations
p6252
aVchristine ebersole
p6253
aVlove and money
p6254
aVbarbara crampton
p6255
aVbig 12 conference
p6256
aVjake one
p6257
aVconnie britton
p6258
aVdenver, colorado
p6259
aVbad religion
p6260
aVrommel rodrigues
p6261
aVdennis haysbert
p6262
aVno deposit, no return
p6263
aVktud-cd
p6264
aVchillout
p6265
aVoff pitch
p6266
aVsandeep kulkarni
p6267
aVmute records
p6268
aVmtv films
p6269
aVin a time lapse
p6270
aVebert presents: at the movies
p6271
aVasking alexandria
p6272
aVparamount vantage
p6273
aVhello-goodbye
p6274
aVkanye west
p6275
aVjeffrey tambor
p6276
aVrichard lagravenese
p6277
aVcharli xcx
p6278
aVstoryville
p6279
aVtyler perry presents peeples
p6280
aVyoon je-moon
p6281
aVa case of honor
p6282
aVentertainment film distributors
p6283
aVgerry hambling
p6284
aVdance flick
p6285
aVlittle people, big world
p6286
aVbill spadea
p6287
aVle divorce
p6288
aVso evil, so young
p6289
aVwarner \u005cu2013 uk
p6290
aVin praise of older women
p6291
aVarden myrin
p6292
aVnew day
p6293
aVa flea in her ear
p6294
aVwithout a clue
p6295
aVabout that life
p6296
aVfreestyle releasing
p6297
aVhero at large
p6298
aVgavin rossdale
p6299
aVaidan turner
p6300
aVsergio george
p6301
aVagnez mo
p6302
aVdean wareham
p6303
aVms mr
p6304
aVjoe satriani
p6305
aVlike father like son
p6306
aVkatie dippold
p6307
aVaustin mahone
p6308
aVdance-pop
p6309
aVmiracle mile
p6310
aVmaile flanagan
p6311
aVhome to danger
p6312
aVamerican flyers
p6313
aVharmony samuels
p6314
aVjohnny carson
p6315
aVjurnee smollett
p6316
aVpenn badgley
p6317
aVv.i.p.
p6318
aVbeau geste
p6319
aVrosemarie dewitt
p6320
aVgoodbye lover
p6321
aVgrant broadcasting system ii
p6322
aVwednesday 13
p6323
aVwpta
p6324
aVwaterworld
p6325
aVdimly lit
p6326
aVhogcock!
p6327
aVstudiocanal
p6328
aVtarzan goes to india
p6329
aVemil\u005cu00edana torrini
p6330
aVsonny kiriakis
p6331
aVmysterious island
p6332
aVwptz
p6333
aVwhat's up, doc?
p6334
aVthere's always a thursday
p6335
aVruby cairo
p6336
aVrobert macneil
p6337
aVdave sitek
p6338
aVanamaria marinca
p6339
aVbrannigan
p6340
aVnigel lythgoe
p6341
aVgrace gummer
p6342
aVhot enough for june
p6343
aVking & maxwell
p6344
aVepic records
p6345
aVtroop beverly hills
p6346
aVcooperative music
p6347
aVbeast of blood
p6348
aVjohn boehner
p6349
aVbarun chanda
p6350
aVwaterhole no. 3
p6351
aVjustine lupe
p6352
aVthree young texans
p6353
aVamazon.com
p6354
aVthis is the end
p6355
aVdeath rides a horse
p6356
aVleslie mann
p6357
aVsee no evil, hear no evil
p6358
aVnotre dame fighting irish football
p6359
aVthirteen days
p6360
aVone direction: this is us
p6361
aV33rd golden raspberry awards
p6362
aVmatthew wilder
p6363
aVcolin cowherd
p6364
aVlounge music
p6365
aVnoel harrison
p6366
aVjournal communications
p6367
aVbroken bells
p6368
aVeat, drink, love
p6369
aVjohn krasinski
p6370
aVbret easton ellis
p6371
aVaur\u005cu00e9lien recoing
p6372
aVmy family tv
p6373
aV2013 texas tech red raiders football team
p6374
aVk-pop
p6375
aVcbs films
p6376
aVexperimental music
p6377
aV60 minutes
p6378
aVfood factory
p6379
aVherbie goes to monte carlo
p6380
aVdale robertson
p6381
aVjoshua dallas
p6382
aVdeaths in 2013
p6383
aVelspet gray
p6384
aVballyhoo!
p6385
aVspice world
p6386
aVpete 'n' tillie
p6387
aVamerican hi-fi
p6388
aVbradley cooper
p6389
aVitunes store
p6390
aVi am kloot
p6391
aVpost-newsweek stations
p6392
aVit's kind of a funny story
p6393
aVnonesuch records
p6394
aVanchorman 2: the legend continues
p6395
aVmillion dollar mermaid
p6396
aVcrime of passion
p6397
aVb.j. novak
p6398
aVdrunk history
p6399
aVmaggie gyllenhaal
p6400
aVasiana airlines
p6401
aVtalib kweli
p6402
aVwyoming valley
p6403
aVmnek
p6404
aVfaraway, so close!
p6405
aVrichie sambora
p6406
aVsneak previews
p6407
aVwkbw-tv
p6408
aVelectropop
p6409
aVmichael france
p6410
aVturner broadcasting system
p6411
aVgray television
p6412
aVchina venture
p6413
aVwmtv
p6414
aVjason suecof
p6415
aVkvelertak
p6416
aVjulianna margulies
p6417
aVtri-cities
p6418
aVchapter 1
p6419
aVlast patrol
p6420
aVreince priebus
p6421
aVnine inch nails
p6422
aVariana grande
p6423
aVcapitol records nashville
p6424
aVmulholland falls
p6425
aVk. michelle
p6426
aVbill sage
p6427
aVedge of sanity
p6428
aVhughes and harlow: angels in hell
p6429
aVdel the funky homosapien
p6430
aVdeep house
p6431
aVrosamund pike
p6432
aVmax media
p6433
aVjos\u005cu00e9phine de la baume
p6434
aVtime warner cable
p6435
aVpaint the sky
p6436
aVlucas secon
p6437
aVthree sailors and a girl
p6438
aVcleveland, ohio
p6439
aVantonio banderas
p6440
aVjustin chon
p6441
aV47 ronin
p6442
aVparty never ends
p6443
aVpop evil
p6444
aVdon bowman
p6445
aVdon't look down
p6446
aVyou only live twice
p6447
aValive and kicking
p6448
aVedward sharpe and the magnetic zeros
p6449
aVjon seda
p6450
aVa midsummer night's dream
p6451
aVkvcw
p6452
aVcraig potter
p6453
aVfamily trade
p6454
aVluke bracey
p6455
aVblake masters
p6456
aVwicked single
p6457
aVtakeshi kusao
p6458
aVcop hater
p6459
aVn. santhanam
p6460
aVlashawn daniels
p6461
aVmy gun is quick
p6462
aVvictor fleming
p6463
aVscale the summit
p6464
aVcarlos mckinney
p6465
aVstart the party
p6466
aVgilbert taylor
p6467
aVhardcore pawn: chicago
p6468
aVshahrukh khan
p6469
aVricha chadda
p6470
aVsidushq
p6471
aVeastern daylight time
p6472
aVtexas across the river
p6473
aVm*a*s*h
p6474
aVtreasure island
p6475
aVmayday parade
p6476
aVwtkr
p6477
aVlogan lerman
p6478
aVtwelfth doctor
p6479
aVc.h.o.m.p.s.
p6480
aVbeta love
p6481
aVwho's the boss?
p6482
aVderrty entertainment
p6483
aVnia vardalos
p6484
aVfist of legend
p6485
aVromantic comedy
p6486
aVmodern family
p6487
aVguntucky
p6488
aVnbc universal
p6489
aVel deseo
p6490
aVeasy rider
p6491
aVoakland, california
p6492
aVroberto orci
p6493
aVlolly-madonna xxx
p6494
aVpaul jenkins
p6495
aVranbir kapoor
p6496
aVtaylor hackford
p6497
aVesquire network
p6498
aVxtra mile recordings
p6499
aVare you being served?
p6500
aVto catch a spy
p6501
aVbad company
p6502
aVwatching movies with the sound off
p6503
aVdance with me, henry
p6504
aVboston pops orchestra
p6505
aVracing stripes
p6506
aVtarja turunen
p6507
aVframe by frame
p6508
aVwagner moura
p6509
aVmonsters vs. aliens
p6510
aVjennifer morrison
p6511
aVdoom metal
p6512
aVpainting the clouds with sunshine
p6513
aVladies who do
p6514
aVyoung fyre
p6515
aV29th street
p6516
aVdeath on the nile
p6517
aVclass of '44
p6518
aVteacher's pet
p6519
aVagents of s.h.i.e.l.d.
p6520
aVpeter mullan
p6521
aVthalaivaa
p6522
aVgene stupnitsky
p6523
aVbloomberg businessweek
p6524
aVthrill of a romance
p6525
aVa high wind in jamaica
p6526
aVkeith david
p6527
aVrobin sachs
p6528
aVed schultz
p6529
aVphil ramone
p6530
aVdavid jacobs
p6531
aVmasters of illusion
p6532
aVry\u005cu014d horikawa
p6533
aVready to die
p6534
aVhear music
p6535
aVmetro-goldwyn-mayer
p6536
aVlead, south dakota
p6537
aVn. t. rama rao jr.
p6538
aVdo no harm
p6539
aVtake a hard ride
p6540
aVhouse of usher
p6541
aVhollywood reporter
p6542
aVstray from the path
p6543
aVjames at 16
p6544
aVnicole kidman
p6545
aVbert mccracken
p6546
aVcolin farrell
p6547
aVping pong
p6548
aVdiane kruger
p6549
aVbeach blanket bingo
p6550
aVfox sports west and prime ticket
p6551
aVseven days to noon
p6552
aVdays of wine and roses
p6553
aVeric mccormack
p6554
aVwcwg
p6555
aVsongs from st. somewhere
p6556
aVkasn
p6557
aVpoorna jagannathan
p6558
aVgarrett hedlund
p6559
aVoklahoma crude
p6560
aVtim james
p6561
aVraj yadav
p6562
aVscreaming mimi
p6563
aVmoonway
p6564
aVjohn petrucci
p6565
aV7l & esoteric
p6566
aVtable no. 21
p6567
aVdepeche mode
p6568
aVarjun kapoor
p6569
aVkyle gallner
p6570
aVkpth
p6571
aVsullivan stapleton
p6572
aVwarlock: the armageddon
p6573
aVwivt
p6574
aVkuk harrell
p6575
aVwalt disney studios motion pictures
p6576
aVsmith media
p6577
aVelectronicore
p6578
aVmichael cera
p6579
aVmona thiba
p6580
aVbilly liar
p6581
aVashish vidyarthi
p6582
aVa guy named joe
p6583
aVkim dickens
p6584
aVamerican spirit media
p6585
aVcello rock
p6586
aVweed country
p6587
aVdavid harbour
p6588
aVsymphonic rock
p6589
aVday of the animals
p6590
aVelliot cowan
p6591
aVcircus of fear
p6592
aVeddie marsan
p6593
aVmichael pe\u005cu00f1a
p6594
aVcole hauser
p6595
aVronald f. maxwell
p6596
aVjeff nichols
p6597
aVpihla viitala
p6598
aVslowcore
p6599
aVmark owen
p6600
aVpenelope skinner
p6601
aVerased tapes records
p6602
aVwinnie mandela
p6603
aVplaying for keeps
p6604
aVhalloween: the curse of michael myers
p6605
aVrossella falk
p6606
aVthrash metal
p6607
aVfede alvarez
p6608
aVmilwaukee journal-sentinel
p6609
aVkelly dorji
p6610
aVjason derulo
p6611
aVdrop dead diva
p6612
aVhot lead and cold feet
p6613
aVstephanie szostak
p6614
aVpolyvinyl records
p6615
aVzulu dawn
p6616
aViron man 3
p6617
aVgeorge takei
p6618
aVariana richards
p6619
aVas you like it
p6620
aVwizm-fm
p6621
aVbeth behrs
p6622
aVleslie frankenheimer
p6623
aVtim kelleher
p6624
aVrana daggubati
p6625
aVmercury records
p6626
aVclarence gilyard, jr.
p6627
aVrebel eats
p6628
aVeddi arent
p6629
aVti west
p6630
aV2012 in home video
p6631
aVlocal marketing agreement
p6632
aVbillboard.com
p6633
aVmidnight cowboy
p6634
aVuhf television broadcasting
p6635
aVchris hemsworth
p6636
aVspinefarm records
p6637
aVaasif mandvi
p6638
aVmathcore
p6639
aVamerica ferrera
p6640
aVyoung money entertainment
p6641
aVbeluga heights records
p6642
aVidentity thief
p6643
aVmarquette, michigan
p6644
aVlaredo, texas
p6645
aVlouis herthum
p6646
aVillusive sounds
p6647
aVnetwork affiliate
p6648
aVsnoo wilson
p6649
aVal pacino
p6650
aVhigh-definition television
p6651
aVsmokey and the bandit ii
p6652
aVtom wisdom
p6653
aVsymbolyc one
p6654
aVboman irani
p6655
aVcatch us if you can
p6656
aVbefore winter comes
p6657
aVmr. imperium
p6658
aVgranite broadcasting corporation
p6659
aVharum scarum
p6660
aVeric lively
p6661
aVvertical limit
p6662
aVwuthering heights
p6663
aVgone with the west
p6664
aVbatman & robin
p6665
aVyvette nicole brown
p6666
aVkaty perry
p6667
aVjudy greer
p6668
aVkyle chandler
p6669
aVpolar bear club
p6670
aVjeff zucker
p6671
aVjeff bhasker
p6672
aVtracy letts
p6673
aVsidewalks of new york
p6674
aVi dream of jeannie
p6675
aVsteve lillywhite
p6676
aVlux video theatre
p6677
aVnick jonas
p6678
aVeast side/west side
p6679
aVthis is martin bonner
p6680
aVboston, massachusetts
p6681
aVdave wyndorf
p6682
aVmurder by death
p6683
aVdaytime emmy award
p6684
aVanthony head
p6685
aVnew age music
p6686
aVdevendra banhart
p6687
aVsaturday night live
p6688
aViron & wine
p6689
aV2013 in european music
p6690
aVjeff garlin
p6691
aVliving single
p6692
aVpersonal record
p6693
aVlovers and other strangers
p6694
aVlarry karaszewski
p6695
aVangela bassett
p6696
aVgroove metal
p6697
aVscott elrod
p6698
aVkat dennings
p6699
aVlars ulrich
p6700
aVharrisburg, pennsylvania
p6701
aVmel smith
p6702
aVswara bhaskar
p6703
aVshadey
p6704
aVchris parnell
p6705
aVfeels like home
p6706
aVraycom media
p6707
aV20th century fox
p6708
aVjohn malkovich
p6709
aVkiller elite
p6710
aVcount dracula
p6711
aVjames labrie
p6712
aVdaystar television network
p6713
aVkevin james
p6714
aVjimmy o'neill
p6715
aVnicole oliver
p6716
aVenglewood cliffs, new jersey
p6717
aVmurray gershenz
p6718
aVkkfx-ca
p6719
aVcarpark records
p6720
aVpike 22
p6721
aVpike 20
p6722
aVprimal scream
p6723
aVunder the dome
p6724
aVstar trek: the next generation
p6725
aVbrian williams
p6726
aVgrowing pains
p6727
aV2010 tonight show conflict
p6728
aVjohn kerry
p6729
aVstephen frears
p6730
aVviva max!
p6731
aVrodrigo santoro
p6732
aVwon ton ton, the dog who saved hollywood
p6733
aVlaz alonso
p6734
aVwoio
p6735
aVoh, god!
p6736
aVonce upon a crime
p6737
aV36 hours
p6738
aVarmada music
p6739
aVsteve lawrence
p6740
aVguilt is my shadow
p6741
aVhelena bonham carter
p6742
aVone-trick pony
p6743
aVshari springer berman
p6744
aVevil dead
p6745
aVadam ant is the blueblack hussar in marrying the gunner's daughter
p6746
aVweekend update
p6747
aVclark gregg
p6748
aVrawson thurber
p6749
aVforbidden world
p6750
aVcarey mulligan
p6751
aVjonathan levine
p6752
aVfrozen assets
p6753
aVtommy morrison
p6754
aVkatarina \u005cu010cas
p6755
aVfuttocks end
p6756
aVgreg kurstin
p6757
aVson in law
p6758
aVdavid koechner
p6759
aVhold back the night
p6760
aVroc nation
p6761
aVchanning
p6762
aVnew device
p6763
aVmike pniewski
p6764
aVa shot in the dark
p6765
aVwarner bros
p6766
aVkatrina bowden
p6767
aVmandela: long walk to freedom
p6768
aVstellan skarsg\u005cu00e5rd
p6769
aVchristmas music
p6770
aVmclintock!
p6771
aVjeff tremaine
p6772
aVpeter webber
p6773
aVkgcw
p6774
aVevan goldberg
p6775
aVshout at the devil
p6776
aVvalerie bertinelli
p6777
aVwill smith
p6778
aVgeneral hospital
p6779
aVscotty granger
p6780
aVsobredoxis
p6781
aVjackboots on whitehall
p6782
aVdavid o. russell
p6783
aVmillennium entertainment
p6784
aVgemma arterton
p6785
aVlo hoi-pang
p6786
aValex newport
p6787
aVhigh school usa!
p6788
aVadventures of don juan
p6789
aVgloria reuben
p6790
aVjaden smith
p6791
aVjoint venture
p6792
aVi was a male war bride
p6793
aVsoulja boy
p6794
aVlukas haas
p6795
aVscience fiction film
p6796
aVfififf teeners
p6797
aVmarko zaror
p6798
aVguillermo del toro
p6799
aVbarbarella
p6800
aVaustin stowell
p6801
aVup pompeii
p6802
aV30 rock
p6803
aVwfft-tv
p6804
aVhuell howser
p6805
aVarnold vosloo
p6806
aVbeneath the valley of the ultra-vixens
p6807
aVdiablo cody
p6808
aVcedric the entertainer
p6809
aVrobert trujillo
p6810
aVan unmarried woman
p6811
aVbille brown
p6812
aVgosford park
p6813
aVadam driver
p6814
aVbrit marling
p6815
aVmayumi tanaka
p6816
aVleigh whannell
p6817
aVpet shop boys
p6818
aVmore light
p6819
aVdave england
p6820
aVat&t corporation
p6821
aVcisco pike
p6822
aVsleeping with sirens
p6823
aVd.j. cotrona
p6824
aVcollapsible lung
p6825
aVfashion queens
p6826
aVedel records
p6827
aVthriller film
p6828
aVjennifer connelly
p6829
aVa rage to live
p6830
aVstone cold steve austin
p6831
aVcinderella liberty
p6832
aVgypsy sisters
p6833
aVkate hudson
p6834
aVthomas bangalter
p6835
aVamerica's worst tattoos
p6836
aVbells are ringing
p6837
aVcharley grapewin
p6838
aVjimmy shergill
p6839
aVdefence of the realm
p6840
aVedge of america
p6841
aVlady on a train
p6842
aVjosh homme
p6843
aVjourney to midnight
p6844
aVrap rock
p6845
aVcallaway went thataway
p6846
aVfull house
p6847
aVkesha
p6848
aVurban contemporary
p6849
aV2012 san francisco 49ers season
p6850
aVcocola broadcasting
p6851
aVteen witch
p6852
aVpark chan-wook
p6853
aVnick nolte
p6854
aVdarrell brown
p6855
aVhow i met your mother
p6856
aVmichael ironside
p6857
aVsuper collider
p6858
aVed solomon
p6859
aVjack mcbrayer
p6860
aVwbns-tv
p6861
aVsara bareilles
p6862
aVbetty white
p6863
aVthere is another sun
p6864
aVbilly crystal
p6865
aVnorman loves rose
p6866
aVpixar animation studios
p6867
aVelizabeth alley
p6868
aVpga tour on cbs
p6869
aVjamie bartlett
p6870
aVkroenke sports enterprises
p6871
aVdamon albarn
p6872
aVmalachi throne
p6873
aVhowie schwab
p6874
aVcrime story
p6875
aVlassiter
p6876
aVcartoon network
p6877
aVjack shea
p6878
aVborn sinner
p6879
aVtoshiyuki nishida
p6880
aVto be loved
p6881
aVjanice knickrehm
p6882
aVpeter farrelly
p6883
aVinstrumental music
p6884
aVlonesome cowboys
p6885
aVjim mickle
p6886
aVwe came as romans
p6887
aVin a world like this
p6888
aVjulia ormond
p6889
aVseason of mist
p6890
aVmelonie diaz
p6891
aVjamie chung
p6892
aVcbs corporation
p6893
aVsleigh bells
p6894
aVseth meyers
p6895
aVrca records
p6896
aVkevin devine
p6897
aVbye-bye borderline
p6898
aVbear island
p6899
aVelliott reid
p6900
aVa doll's house
p6901
aVarif zakaria
p6902
aVvampire weekend
p6903
aVpermanent record
p6904
aVrock center with brian williams
p6905
aVdamnation alley
p6906
aVjulia sweeney
p6907
aVearth vs. the flying saucers
p6908
aVgun brothers
p6909
aVbinghamton, new york
p6910
aVakiva schaffer
p6911
aVrasputin, the mad monk
p6912
aVjack epps jr.
p6913
aVtegan and sara
p6914
aVindigo meadow
p6915
aVdirty deeds
p6916
aVcrystal world
p6917
aVdoppelg\u005cu00e4nger
p6918
aVwilliam kircher
p6919
aVblack and white
p6920
aVlabor day
p6921
aVlawnmower man 2: beyond cyberspace
p6922
aVdan grech-marguerat
p6923
aVjames maslow
p6924
aVoliver ackland
p6925
aVmichael nyqvist
p6926
aVbless me, ultima
p6927
aVthey only kill their masters
p6928
aVjosh holloway
p6929
aVjoe kidd
p6930
aVcomedy-drama
p6931
aVnational transportation safety board
p6932
aVdaniel henney
p6933
aVrapcore
p6934
aVwhispers in the dark
p6935
aValan moulder
p6936
aVbitter harvest
p6937
aVwbkb-dt3
p6938
aVtrap lord
p6939
aVsimon climie
p6940
aVindustrial rock
p6941
aVmorons from outer space
p6942
aVjoanna kulig
p6943
aVreckless kelly
p6944
aVwgrz
p6945
aVunited states federal government shutdown of 2013
p6946
aVvicki
p6947
aV2013 in heavy metal music
p6948
aVall that echoes
p6949
aVrocky v
p6950
aVannabel fay
p6951
aVanother world
p6952
aVvoodoo man
p6953
aVmono vs stereo
p6954
aVbenito martinez
p6955
aVvh1 classic
p6956
aVbig brother: after dark
p6957
aVdavid oyelowo
p6958
aVlipsha
p6959
aVjefferson in paris
p6960
aVof human bondage
p6961
aVsouth park studios
p6962
aVsafe haven
p6963
aVwelcome oblivion
p6964
aVsharni vinson
p6965
aVshootout at wadala
p6966
aValexa vega
p6967
aVbattle of the bulge
p6968
aVmoney for nothing
p6969
aVmanhunter
p6970
aVn.y.p.d.
p6971
aVterry pheto
p6972
aVamerican game show winnings records
p6973
aVeastern florida state college
p6974
aVtuppence middleton
p6975
aVlouis tomlinson
p6976
aVkatherine webb
p6977
aVshoot the moon
p6978
aVantenna tv
p6979
aVpower pop
p6980
aVsamsung galaxy
p6981
aVjohnny lockwood
p6982
aVsteve-o
p6983
aVdigital subchannel
p6984
aVxl recordings
p6985
aVborn & bred records
p6986
aVnoah and the whale
p6987
aVimaad shah
p6988
aVkatee sackhoff
p6989
aVadam scott
p6990
aVburning love
p6991
aVmississippi burning
p6992
aVw.c. fields and me
p6993
aVdocumentary film
p6994
aVhelen mirren
p6995
aVas the world turns
p6996
aVsioux city, iowa
p6997
aVatlanta braves
p6998
aVyoung cassidy
p6999
aVfreya mavor
p7000
aVjonas brothers
p7001
aVj.j. starbuck
p7002
aVdistrict of columbia
p7003
aVgoldie hawn
p7004
aVsean patrick flanery
p7005
aVben barnes
p7006
aVbig east conference
p7007
aVwtov-tv
p7008
aVhowards end
p7009
aVwe are the 21st century ambassadors of peace & magic
p7010
aVscarlett johansson
p7011
aVemi records
p7012
aVbad blood
p7013
aVj. b. smoove
p7014
aVchrissie chau
p7015
aVhip hop soul
p7016
aVhard contract
p7017
aVinside llewyn davis
p7018
aV2009 in film
p7019
aVjodi arias: dirty little secret
p7020
aVliam neeson
p7021
aVfox searchlight pictures
p7022
aV2010\u005cu201313 big east conference realignment
p7023
aVmira nair
p7024
aVjohn oliver
p7025
aVteedra moses
p7026
aVmark steven johnson
p7027
aVchanning tatum
p7028
aVrobert maillet
p7029
aVrusty cundieff
p7030
aVfox news sunday
p7031
aVswim deep
p7032
aVit happened to jane
p7033
aVmrs. doubtfire
p7034
aVcon air
p7035
aVjonathan pryce
p7036
aVdavid axelrod
p7037
aVill scarlett
p7038
aVjohn collee
p7039
aVdiane keaton
p7040
aVkesha: my crazy beautiful life
p7041
aVearl sweatshirt
p7042
aVlewinsky scandal
p7043
aVben coccio
p7044
aVcarlos alazraqui
p7045
aVscary movie 5
p7046
aVruben fleischer
p7047
aVthere was a crooked man...
p7048
aVwluc-tv
p7049
aVstorage wars: new york
p7050
aVnassar
p7051
aVphil spector
p7052
aVdreamworks animation
p7053
aVgunsmoke
p7054
aVcome fly with me
p7055
aVdermot mulroney
p7056
aVdeep south paranormal
p7057
aVcbs dream team
p7058
aVsofly & nius
p7059
aVrani mukerji
p7060
aVhillary rodham clinton
p7061
aVdeath wish 3
p7062
aVso young
p7063
aVa soldier's story
p7064
aVmccanick
p7065
aValter bridge
p7066
aVdeaths in january 2013
p7067
aVkingsport, tennessee
p7068
aVjust like a woman
p7069
aVbilly budd
p7070
aVsesame street
p7071
aVabc owned television stations
p7072
aVram gopal varma
p7073
aVtop hooker
p7074
aVpure heroine
p7075
aVkcet
p7076
aVblanca su\u005cu00e1rez
p7077
aVchange becomes us
p7078
aVwhatever happened to harold smith?
p7079
aVlos campesinos!
p7080
aVfifa world cup
p7081
aVclaude pr\u005cu00e9fontaine
p7082
atRp7083
.